

Microchip Technology PIC LITE Macro Assembler V1.45 build -152302408 
                                                                                               Mon Apr 23 23:07:06 2018

Microchip Technology Omniscient Code Generator v1.45 (Free mode) build 201711160504
     1                           	processor	16F877A
     2                           	opt	pw 120
     3                           	opt	lm
     4                           	psect	cinit,global,class=CODE,merge=1,delta=2
     5                           	psect	bssBANK0,global,class=BANK0,space=1,delta=1
     6                           	psect	cstackCOMMON,global,class=COMMON,space=1,delta=1
     7                           	psect	cstackBANK0,global,class=BANK0,space=1,delta=1
     8                           	psect	maintext,global,class=CODE,split=1,delta=2
     9                           	psect	text1,local,class=CODE,merge=1,delta=2
    10                           	psect	text2,local,class=CODE,merge=1,delta=2
    11                           	psect	text3,local,class=CODE,merge=1,delta=2
    12                           	psect	text4,local,class=CODE,merge=1,delta=2
    13                           	psect	text5,local,class=CODE,merge=1,delta=2
    14                           	psect	text6,local,class=CODE,merge=1,delta=2
    15                           	psect	text7,local,class=CODE,merge=1,delta=2
    16                           	psect	text8,local,class=CODE,merge=1,delta=2
    17                           	psect	text9,local,class=CODE,merge=1,delta=2
    18                           	psect	text10,local,class=CODE,merge=1,delta=2
    19                           	psect	text11,local,class=CODE,merge=1,delta=2,group=2
    20                           	psect	text12,local,class=CODE,merge=1,delta=2,group=2
    21                           	psect	text13,local,class=CODE,merge=1,delta=2
    22                           	psect	text14,local,class=CODE,merge=1,delta=2
    23                           	psect	intentry,global,class=CODE,delta=2
    24                           	dabs	1,0x7E,2
    25  0000                     
    26                           ; Version 1.45
    27                           ; Generated 16/11/2017 GMT
    28                           ; 
    29                           ; Copyright © 2017, Microchip Technology Inc. and its subsidiaries ("Microchip")
    30                           ; All rights reserved.
    31                           ; 
    32                           ; This software is developed by Microchip Technology Inc. and its subsidiaries ("Microch
      +                          ip").
    33                           ; 
    34                           ; Redistribution and use in source and binary forms, with or without modification, are
    35                           ; permitted provided that the following conditions are met:
    36                           ; 
    37                           ;     1. Redistributions of source code must retain the above copyright notice, this lis
      +                          t of
    38                           ;        conditions and the following disclaimer.
    39                           ; 
    40                           ;     2. Redistributions in binary form must reproduce the above copyright notice, this 
      +                          list
    41                           ;        of conditions and the following disclaimer in the documentation and/or other
    42                           ;        materials provided with the distribution.
    43                           ; 
    44                           ;     3. Microchip's name may not be used to endorse or promote products derived from th
      +                          is
    45                           ;        software without specific prior written permission.
    46                           ; 
    47                           ; THIS SOFTWARE IS PROVIDED BY MICROCHIP "AS IS" AND ANY EXPRESS OR IMPLIED WARRANTIES,
    48                           ; INCLUDING, BUT NOT LIMITED TO, THE IMPLIED WARRANTIES OF MERCHANTABILITY AND FITNESS F
      +                          OR
    49                           ; PURPOSE ARE DISCLAIMED.  IN NO EVENT SHALL MICROCHIP BE LIABLE FOR ANY DIRECT, INDIREC
      +                          T,
    50                           ; INCIDENTAL, SPECIAL, EXEMPLARY, OR CONSEQUENTIAL DAMAGES (INCLUDING BUT NOT LIMITED TO
    51                           ; PROCUREMENT OF SUBSTITUTE GOODS OR SERVICES; LOSS OF USE, DATA OR PROFITS; OR BUSINESS
    52                           ; INTERRUPTION) HOWSOEVER CAUSED AND ON ANY THEORY OF LIABILITY, WHETHER IN CONTRACT, ST
      +                          RICT
    53                           ; LIABILITY, OR TORT (INCLUDING NEGLIGENCE OR OTHERWISE) ARISING IN ANY WAY OUT OF THE U
      +                          SE OF
    54                           ; THIS SOFTWARE, EVEN IF ADVISED OF THE POSSIBILITY OF SUCH DAMAGE.
    55                           ; 
    56                           ; 
    57                           ; Code-generator required, PIC16F877A Definitions
    58                           ; 
    59                           ; SFR Addresses
    60  0000                     	;# 
    61  0001                     	;# 
    62  0002                     	;# 
    63  0003                     	;# 
    64  0004                     	;# 
    65  0005                     	;# 
    66  0006                     	;# 
    67  0007                     	;# 
    68  0008                     	;# 
    69  0009                     	;# 
    70  000A                     	;# 
    71  000B                     	;# 
    72  000C                     	;# 
    73  000D                     	;# 
    74  000E                     	;# 
    75  000E                     	;# 
    76  000F                     	;# 
    77  0010                     	;# 
    78  0011                     	;# 
    79  0012                     	;# 
    80  0013                     	;# 
    81  0014                     	;# 
    82  0015                     	;# 
    83  0015                     	;# 
    84  0016                     	;# 
    85  0017                     	;# 
    86  0018                     	;# 
    87  0019                     	;# 
    88  001A                     	;# 
    89  001B                     	;# 
    90  001B                     	;# 
    91  001C                     	;# 
    92  001D                     	;# 
    93  001E                     	;# 
    94  001F                     	;# 
    95  0081                     	;# 
    96  0085                     	;# 
    97  0086                     	;# 
    98  0087                     	;# 
    99  0088                     	;# 
   100  0089                     	;# 
   101  008C                     	;# 
   102  008D                     	;# 
   103  008E                     	;# 
   104  0091                     	;# 
   105  0092                     	;# 
   106  0093                     	;# 
   107  0094                     	;# 
   108  0098                     	;# 
   109  0099                     	;# 
   110  009C                     	;# 
   111  009D                     	;# 
   112  009E                     	;# 
   113  009F                     	;# 
   114  010C                     	;# 
   115  010D                     	;# 
   116  010E                     	;# 
   117  010F                     	;# 
   118  018C                     	;# 
   119  018D                     	;# 
   120  0000                     	;# 
   121  0001                     	;# 
   122  0002                     	;# 
   123  0003                     	;# 
   124  0004                     	;# 
   125  0005                     	;# 
   126  0006                     	;# 
   127  0007                     	;# 
   128  0008                     	;# 
   129  0009                     	;# 
   130  000A                     	;# 
   131  000B                     	;# 
   132  000C                     	;# 
   133  000D                     	;# 
   134  000E                     	;# 
   135  000E                     	;# 
   136  000F                     	;# 
   137  0010                     	;# 
   138  0011                     	;# 
   139  0012                     	;# 
   140  0013                     	;# 
   141  0014                     	;# 
   142  0015                     	;# 
   143  0015                     	;# 
   144  0016                     	;# 
   145  0017                     	;# 
   146  0018                     	;# 
   147  0019                     	;# 
   148  001A                     	;# 
   149  001B                     	;# 
   150  001B                     	;# 
   151  001C                     	;# 
   152  001D                     	;# 
   153  001E                     	;# 
   154  001F                     	;# 
   155  0081                     	;# 
   156  0085                     	;# 
   157  0086                     	;# 
   158  0087                     	;# 
   159  0088                     	;# 
   160  0089                     	;# 
   161  008C                     	;# 
   162  008D                     	;# 
   163  008E                     	;# 
   164  0091                     	;# 
   165  0092                     	;# 
   166  0093                     	;# 
   167  0094                     	;# 
   168  0098                     	;# 
   169  0099                     	;# 
   170  009C                     	;# 
   171  009D                     	;# 
   172  009E                     	;# 
   173  009F                     	;# 
   174  010C                     	;# 
   175  010D                     	;# 
   176  010E                     	;# 
   177  010F                     	;# 
   178  018C                     	;# 
   179  018D                     	;# 
   180  0000                     	;# 
   181  0001                     	;# 
   182  0002                     	;# 
   183  0003                     	;# 
   184  0004                     	;# 
   185  0005                     	;# 
   186  0006                     	;# 
   187  0007                     	;# 
   188  0008                     	;# 
   189  0009                     	;# 
   190  000A                     	;# 
   191  000B                     	;# 
   192  000C                     	;# 
   193  000D                     	;# 
   194  000E                     	;# 
   195  000E                     	;# 
   196  000F                     	;# 
   197  0010                     	;# 
   198  0011                     	;# 
   199  0012                     	;# 
   200  0013                     	;# 
   201  0014                     	;# 
   202  0015                     	;# 
   203  0015                     	;# 
   204  0016                     	;# 
   205  0017                     	;# 
   206  0018                     	;# 
   207  0019                     	;# 
   208  001A                     	;# 
   209  001B                     	;# 
   210  001B                     	;# 
   211  001C                     	;# 
   212  001D                     	;# 
   213  001E                     	;# 
   214  001F                     	;# 
   215  0081                     	;# 
   216  0085                     	;# 
   217  0086                     	;# 
   218  0087                     	;# 
   219  0088                     	;# 
   220  0089                     	;# 
   221  008C                     	;# 
   222  008D                     	;# 
   223  008E                     	;# 
   224  0091                     	;# 
   225  0092                     	;# 
   226  0093                     	;# 
   227  0094                     	;# 
   228  0098                     	;# 
   229  0099                     	;# 
   230  009C                     	;# 
   231  009D                     	;# 
   232  009E                     	;# 
   233  009F                     	;# 
   234  010C                     	;# 
   235  010D                     	;# 
   236  010E                     	;# 
   237  010F                     	;# 
   238  018C                     	;# 
   239  018D                     	;# 
   240  0000                     	;# 
   241  0001                     	;# 
   242  0002                     	;# 
   243  0003                     	;# 
   244  0004                     	;# 
   245  0005                     	;# 
   246  0006                     	;# 
   247  0007                     	;# 
   248  0008                     	;# 
   249  0009                     	;# 
   250  000A                     	;# 
   251  000B                     	;# 
   252  000C                     	;# 
   253  000D                     	;# 
   254  000E                     	;# 
   255  000E                     	;# 
   256  000F                     	;# 
   257  0010                     	;# 
   258  0011                     	;# 
   259  0012                     	;# 
   260  0013                     	;# 
   261  0014                     	;# 
   262  0015                     	;# 
   263  0015                     	;# 
   264  0016                     	;# 
   265  0017                     	;# 
   266  0018                     	;# 
   267  0019                     	;# 
   268  001A                     	;# 
   269  001B                     	;# 
   270  001B                     	;# 
   271  001C                     	;# 
   272  001D                     	;# 
   273  001E                     	;# 
   274  001F                     	;# 
   275  0081                     	;# 
   276  0085                     	;# 
   277  0086                     	;# 
   278  0087                     	;# 
   279  0088                     	;# 
   280  0089                     	;# 
   281  008C                     	;# 
   282  008D                     	;# 
   283  008E                     	;# 
   284  0091                     	;# 
   285  0092                     	;# 
   286  0093                     	;# 
   287  0094                     	;# 
   288  0098                     	;# 
   289  0099                     	;# 
   290  009C                     	;# 
   291  009D                     	;# 
   292  009E                     	;# 
   293  009F                     	;# 
   294  010C                     	;# 
   295  010D                     	;# 
   296  010E                     	;# 
   297  010F                     	;# 
   298  018C                     	;# 
   299  018D                     	;# 
   300  0000                     	;# 
   301  0001                     	;# 
   302  0002                     	;# 
   303  0003                     	;# 
   304  0004                     	;# 
   305  0005                     	;# 
   306  0006                     	;# 
   307  0007                     	;# 
   308  0008                     	;# 
   309  0009                     	;# 
   310  000A                     	;# 
   311  000B                     	;# 
   312  000C                     	;# 
   313  000D                     	;# 
   314  000E                     	;# 
   315  000E                     	;# 
   316  000F                     	;# 
   317  0010                     	;# 
   318  0011                     	;# 
   319  0012                     	;# 
   320  0013                     	;# 
   321  0014                     	;# 
   322  0015                     	;# 
   323  0015                     	;# 
   324  0016                     	;# 
   325  0017                     	;# 
   326  0018                     	;# 
   327  0019                     	;# 
   328  001A                     	;# 
   329  001B                     	;# 
   330  001B                     	;# 
   331  001C                     	;# 
   332  001D                     	;# 
   333  001E                     	;# 
   334  001F                     	;# 
   335  0081                     	;# 
   336  0085                     	;# 
   337  0086                     	;# 
   338  0087                     	;# 
   339  0088                     	;# 
   340  0089                     	;# 
   341  008C                     	;# 
   342  008D                     	;# 
   343  008E                     	;# 
   344  0091                     	;# 
   345  0092                     	;# 
   346  0093                     	;# 
   347  0094                     	;# 
   348  0098                     	;# 
   349  0099                     	;# 
   350  009C                     	;# 
   351  009D                     	;# 
   352  009E                     	;# 
   353  009F                     	;# 
   354  010C                     	;# 
   355  010D                     	;# 
   356  010E                     	;# 
   357  010F                     	;# 
   358  018C                     	;# 
   359  018D                     	;# 
   360  0000                     	;# 
   361  0001                     	;# 
   362  0002                     	;# 
   363  0003                     	;# 
   364  0004                     	;# 
   365  0005                     	;# 
   366  0006                     	;# 
   367  0007                     	;# 
   368  0008                     	;# 
   369  0009                     	;# 
   370  000A                     	;# 
   371  000B                     	;# 
   372  000C                     	;# 
   373  000D                     	;# 
   374  000E                     	;# 
   375  000E                     	;# 
   376  000F                     	;# 
   377  0010                     	;# 
   378  0011                     	;# 
   379  0012                     	;# 
   380  0013                     	;# 
   381  0014                     	;# 
   382  0015                     	;# 
   383  0015                     	;# 
   384  0016                     	;# 
   385  0017                     	;# 
   386  0018                     	;# 
   387  0019                     	;# 
   388  001A                     	;# 
   389  001B                     	;# 
   390  001B                     	;# 
   391  001C                     	;# 
   392  001D                     	;# 
   393  001E                     	;# 
   394  001F                     	;# 
   395  0081                     	;# 
   396  0085                     	;# 
   397  0086                     	;# 
   398  0087                     	;# 
   399  0088                     	;# 
   400  0089                     	;# 
   401  008C                     	;# 
   402  008D                     	;# 
   403  008E                     	;# 
   404  0091                     	;# 
   405  0092                     	;# 
   406  0093                     	;# 
   407  0094                     	;# 
   408  0098                     	;# 
   409  0099                     	;# 
   410  009C                     	;# 
   411  009D                     	;# 
   412  009E                     	;# 
   413  009F                     	;# 
   414  010C                     	;# 
   415  010D                     	;# 
   416  010E                     	;# 
   417  010F                     	;# 
   418  018C                     	;# 
   419  018D                     	;# 
   420  0009                     _PORTE	set	9
   421  0008                     _PORTD	set	8
   422  0007                     _PORTC	set	7
   423  0006                     _PORTB	set	6
   424  0005                     _PORTA	set	5
   425  0034                     _RB4	set	52
   426  0035                     _RB5	set	53
   427  0028                     _RA0	set	40
   428  0029                     _RA1	set	41
   429  002A                     _RA2	set	42
   430  002B                     _RA3	set	43
   431  002C                     _RA4	set	44
   432  002D                     _RA5	set	45
   433  003C                     _RC4	set	60
   434  003D                     _RC5	set	61
   435  003E                     _RC6	set	62
   436  003F                     _RC7	set	63
   437  003B                     _RC3	set	59
   438  003A                     _RC2	set	58
   439  004A                     _RE2	set	74
   440  0089                     _TRISE	set	137
   441  0088                     _TRISD	set	136
   442  0087                     _TRISC	set	135
   443  0086                     _TRISB	set	134
   444  0085                     _TRISA	set	133
   445                           
   446                           ; #config settings
   447  0000                     
   448                           	psect	cinit
   449  0015                     start_initialization:	
   450  0015                     __initialization:	
   451                           
   452                           ; Clear objects allocated to BANK0
   453  0015  1283               	bcf	3,5	;RP0=0, select bank0
   454  0016  1303               	bcf	3,6	;RP1=0, select bank0
   455  0017  01B6               	clrf	__pbssBANK0& (0+127)
   456  0018  01B7               	clrf	(__pbssBANK0+1)& (0+127)
   457  0019  01B8               	clrf	(__pbssBANK0+2)& (0+127)
   458  001A  01B9               	clrf	(__pbssBANK0+3)& (0+127)
   459  001B  01BA               	clrf	(__pbssBANK0+4)& (0+127)
   460  001C  01BB               	clrf	(__pbssBANK0+5)& (0+127)
   461  001D  01BC               	clrf	(__pbssBANK0+6)& (0+127)
   462  001E  01BD               	clrf	(__pbssBANK0+7)& (0+127)
   463  001F  01BE               	clrf	(__pbssBANK0+8)& (0+127)
   464  0020  01BF               	clrf	(__pbssBANK0+9)& (0+127)
   465  0021                     end_of_initialization:	
   466                           ;End of C runtime variable initialization code
   467                           
   468  0021                     __end_of__initialization:	
   469  0021  0183               	clrf	3
   470  0022  120A  118A  2825   	ljmp	_main	;jump to C main() function
   471                           
   472                           	psect	bssBANK0
   473  0036                     __pbssBANK0:	
   474  0036                     lcd_bcd@F1134:	
   475  0036                     	ds	10
   476                           
   477                           	psect	cstackCOMMON
   478  0070                     __pcstackCOMMON:	
   479  0070                     ?_InitApp:	
   480  0070                     ?_lcd_initialize:	
   481                           ; 1 bytes @ 0x0
   482                           
   483  0070                     ?_lcd_home:	
   484                           ; 1 bytes @ 0x0
   485                           
   486  0070                     ?_lcd_goto:	
   487                           ; 1 bytes @ 0x0
   488                           
   489  0070                     ?_set_lcd_e:	
   490                           ; 1 bytes @ 0x0
   491                           
   492  0070                     ?_lcd_clear:	
   493                           ; 1 bytes @ 0x0
   494                           
   495  0070                     ?_set_lcd_rs:	
   496                           ; 1 bytes @ 0x0
   497                           
   498  0070                     ?_set_lcd_data:	
   499                           ; 1 bytes @ 0x0
   500                           
   501  0070                     ?_isr:	
   502                           ; 1 bytes @ 0x0
   503                           
   504  0070                     ??_isr:	
   505                           ; 1 bytes @ 0x0
   506                           
   507  0070                     ?_main:	
   508                           ; 1 bytes @ 0x0
   509                           
   510  0070                     ?_lcd_putchar:	
   511                           ; 1 bytes @ 0x0
   512                           
   513                           
   514                           ; 1 bytes @ 0x0
   515  0070                     	ds	4
   516  0074                     ??_InitApp:	
   517  0074                     ??_set_lcd_e:	
   518                           ; 1 bytes @ 0x4
   519                           
   520  0074                     ??_set_lcd_rs:	
   521                           ; 1 bytes @ 0x4
   522                           
   523  0074                     ??_set_lcd_data:	
   524                           ; 1 bytes @ 0x4
   525                           
   526  0074                     ?___lwdiv:	
   527                           ; 1 bytes @ 0x4
   528                           
   529  0074                     ?___lwmod:	
   530                           ; 2 bytes @ 0x4
   531                           
   532  0074                     set_lcd_e@b_output:	
   533                           ; 2 bytes @ 0x4
   534                           
   535  0074                     set_lcd_rs@b_output:	
   536                           ; 1 bytes @ 0x4
   537                           
   538  0074                     set_lcd_data@uc_data:	
   539                           ; 1 bytes @ 0x4
   540                           
   541  0074                     ___lwdiv@divisor:	
   542                           ; 1 bytes @ 0x4
   543                           
   544  0074                     ___lwmod@divisor:	
   545                           ; 2 bytes @ 0x4
   546                           
   547                           
   548                           ; 2 bytes @ 0x4
   549  0074                     	ds	1
   550  0075                     ?_send_lcd_data:	
   551  0075                     send_lcd_data@uc_data:	
   552                           ; 1 bytes @ 0x5
   553                           
   554                           
   555                           ; 1 bytes @ 0x5
   556  0075                     	ds	1
   557  0076                     ??_send_lcd_data:	
   558  0076                     ___lwdiv@dividend:	
   559                           ; 1 bytes @ 0x6
   560                           
   561  0076                     ___lwmod@dividend:	
   562                           ; 2 bytes @ 0x6
   563                           
   564                           
   565                           ; 2 bytes @ 0x6
   566  0076                     	ds	2
   567  0078                     ??___lwdiv:	
   568  0078                     ??___lwmod:	
   569                           ; 1 bytes @ 0x8
   570                           
   571  0078                     send_lcd_data@b_rs:	
   572                           ; 1 bytes @ 0x8
   573                           
   574                           
   575                           ; 1 bytes @ 0x8
   576  0078                     	ds	1
   577  0079                     ??_lcd_home:	
   578  0079                     ??_lcd_goto:	
   579                           ; 1 bytes @ 0x9
   580                           
   581  0079                     ??_lcd_clear:	
   582                           ; 1 bytes @ 0x9
   583                           
   584  0079                     ??_lcd_putchar:	
   585                           ; 1 bytes @ 0x9
   586                           
   587  0079                     ___lwmod@counter:	
   588                           ; 1 bytes @ 0x9
   589                           
   590                           
   591                           ; 1 bytes @ 0x9
   592  0079                     	ds	1
   593                           
   594                           	psect	cstackBANK0
   595  0020                     __pcstackBANK0:	
   596  0020                     ??_lcd_initialize:	
   597  0020                     lcd_goto@uc_position:	
   598                           ; 1 bytes @ 0x0
   599                           
   600  0020                     lcd_putchar@c_data:	
   601                           ; 1 bytes @ 0x0
   602                           
   603  0020                     ___lwdiv@quotient:	
   604                           ; 1 bytes @ 0x0
   605                           
   606                           
   607                           ; 2 bytes @ 0x0
   608  0020                     	ds	2
   609  0022                     ___lwdiv@counter:	
   610                           
   611                           ; 1 bytes @ 0x2
   612  0022                     	ds	1
   613  0023                     ?_lcd_bcd:	
   614  0023                     lcd_bcd@ui_number:	
   615                           ; 1 bytes @ 0x3
   616                           
   617                           
   618                           ; 2 bytes @ 0x3
   619  0023                     	ds	2
   620  0025                     ??_lcd_bcd:	
   621                           
   622                           ; 1 bytes @ 0x5
   623  0025                     	ds	4
   624  0029                     lcd_bcd@ui_decimal:	
   625                           
   626                           ; 10 bytes @ 0x9
   627  0029                     	ds	10
   628  0033                     lcd_bcd@uc_digit:	
   629                           
   630                           ; 1 bytes @ 0x13
   631  0033                     	ds	1
   632  0034                     ??_main:	
   633                           
   634                           ; 1 bytes @ 0x14
   635  0034                     	ds	2
   636                           
   637                           	psect	maintext
   638  0025                     __pmaintext:	
   639 ;;
   640 ;;Main: autosize = 0, tempsize = 2, incstack = 0, save=0
   641 ;;
   642 ;; *************** function _main *****************
   643 ;; Defined at:
   644 ;;		line 19 in file "main.c"
   645 ;; Parameters:    Size  Location     Type
   646 ;;		None
   647 ;; Auto vars:     Size  Location     Type
   648 ;;		None
   649 ;; Return value:  Size  Location     Type
   650 ;;                  1    wreg      void 
   651 ;; Registers used:
   652 ;;		wreg, fsr0l, fsr0h, status,2, status,0, pclath, cstack
   653 ;; Tracked objects:
   654 ;;		On entry : B00/0
   655 ;;		On exit  : 0/0
   656 ;;		Unchanged: 0/0
   657 ;; Data sizes:     COMMON   BANK0   BANK1   BANK3   BANK2
   658 ;;      Params:         0       0       0       0       0
   659 ;;      Locals:         0       0       0       0       0
   660 ;;      Temps:          0       2       0       0       0
   661 ;;      Totals:         0       2       0       0       0
   662 ;;Total ram usage:        2 bytes
   663 ;; Hardware stack levels required when called:    5
   664 ;; This function calls:
   665 ;;		_InitApp
   666 ;;		_lcd_bcd
   667 ;;		_lcd_goto
   668 ;;		_lcd_home
   669 ;;		_lcd_initialize
   670 ;; This function is called by:
   671 ;;		Startup code after reset
   672 ;; This function uses a non-reentrant model
   673 ;;
   674                           
   675                           
   676                           ;psect for function _main
   677  0025                     _main:	
   678                           
   679                           ;main.c: 22: InitApp();
   680                           
   681                           ;incstack = 0
   682                           ; Regs used in _main: [wreg-fsr0h+status,2+status,0+pclath+cstack]
   683  0025  120A  118A  238E  120A  118A  	fcall	_InitApp
   684                           
   685                           ;main.c: 24: PORTA = 0;
   686  002A  1283               	bcf	3,5	;RP0=0, select bank0
   687  002B  1303               	bcf	3,6	;RP1=0, select bank0
   688  002C  0185               	clrf	5	;volatile
   689                           
   690                           ;main.c: 25: PORTB = 0;
   691  002D  0186               	clrf	6	;volatile
   692                           
   693                           ;main.c: 26: PORTC = 0;
   694  002E  0187               	clrf	7	;volatile
   695                           
   696                           ;main.c: 27: PORTD = 0;
   697  002F  0188               	clrf	8	;volatile
   698                           
   699                           ;main.c: 28: PORTE = 0;
   700  0030  0189               	clrf	9	;volatile
   701                           
   702                           ;main.c: 30: TRISA = 0b11111111;
   703  0031  30FF               	movlw	255
   704  0032  1683               	bsf	3,5	;RP0=1, select bank1
   705  0033  1303               	bcf	3,6	;RP1=0, select bank1
   706  0034  0085               	movwf	5	;volatile
   707                           
   708                           ;main.c: 31: TRISB = 0b00000011;
   709  0035  3003               	movlw	3
   710  0036  0086               	movwf	6	;volatile
   711                           
   712                           ;main.c: 32: TRISC = 0b11111111;
   713  0037  30FF               	movlw	255
   714  0038  0087               	movwf	7	;volatile
   715                           
   716                           ;main.c: 33: TRISD = 0b00000000;
   717  0039  0188               	clrf	8	;volatile
   718                           
   719                           ;main.c: 34: TRISE = 0b1111;
   720  003A  300F               	movlw	15
   721  003B  0089               	movwf	9	;volatile
   722                           
   723                           ;main.c: 36: lcd_initialize();
   724  003C  120A  118A  229F  120A  118A  	fcall	_lcd_initialize
   725  0041                     l948:	
   726                           ;main.c: 56: while(1)
   727                           
   728                           
   729                           ;main.c: 57: {
   730                           ;main.c: 58: lcd_home();
   731  0041  120A  118A  2378  120A  118A  	fcall	_lcd_home
   732                           
   733                           ;main.c: 59: lcd_bcd(1,RE2);
   734  0046  1003               	clrc
   735  0047  1283               	bcf	3,5	;RP0=0, select bank0
   736  0048  1303               	bcf	3,6	;RP1=0, select bank0
   737  0049  1909               	btfsc	9,2	;volatile
   738  004A  1403               	setc
   739  004B  3000               	movlw	0
   740  004C  1803               	skipnc
   741  004D  3001               	movlw	1
   742  004E  00B4               	movwf	??_main
   743  004F  01B5               	clrf	??_main+1
   744  0050  0834               	movf	??_main,w
   745  0051  00A3               	movwf	lcd_bcd@ui_number
   746  0052  0835               	movf	??_main+1,w
   747  0053  00A4               	movwf	lcd_bcd@ui_number+1
   748  0054  3001               	movlw	1
   749  0055  120A  118A  2193  120A  118A  	fcall	_lcd_bcd
   750                           
   751                           ;main.c: 62: lcd_goto(0x40);
   752  005A  3040               	movlw	64
   753  005B  120A  118A  233E  120A  118A  	fcall	_lcd_goto
   754                           
   755                           ;main.c: 63: lcd_bcd(1,RC2);
   756  0060  1003               	clrc
   757  0061  1283               	bcf	3,5	;RP0=0, select bank0
   758  0062  1303               	bcf	3,6	;RP1=0, select bank0
   759  0063  1907               	btfsc	7,2	;volatile
   760  0064  1403               	setc
   761  0065  3000               	movlw	0
   762  0066  1803               	skipnc
   763  0067  3001               	movlw	1
   764  0068  00B4               	movwf	??_main
   765  0069  01B5               	clrf	??_main+1
   766  006A  0834               	movf	??_main,w
   767  006B  00A3               	movwf	lcd_bcd@ui_number
   768  006C  0835               	movf	??_main+1,w
   769  006D  00A4               	movwf	lcd_bcd@ui_number+1
   770  006E  3001               	movlw	1
   771  006F  120A  118A  2193  120A  118A  	fcall	_lcd_bcd
   772                           
   773                           ;main.c: 64: lcd_goto(0x41);
   774  0074  3041               	movlw	65
   775  0075  120A  118A  233E  120A  118A  	fcall	_lcd_goto
   776                           
   777                           ;main.c: 65: lcd_bcd(1,RC3);
   778  007A  1003               	clrc
   779  007B  1283               	bcf	3,5	;RP0=0, select bank0
   780  007C  1303               	bcf	3,6	;RP1=0, select bank0
   781  007D  1987               	btfsc	7,3	;volatile
   782  007E  1403               	setc
   783  007F  3000               	movlw	0
   784  0080  1803               	skipnc
   785  0081  3001               	movlw	1
   786  0082  00B4               	movwf	??_main
   787  0083  01B5               	clrf	??_main+1
   788  0084  0834               	movf	??_main,w
   789  0085  00A3               	movwf	lcd_bcd@ui_number
   790  0086  0835               	movf	??_main+1,w
   791  0087  00A4               	movwf	lcd_bcd@ui_number+1
   792  0088  3001               	movlw	1
   793  0089  120A  118A  2193  120A  118A  	fcall	_lcd_bcd
   794                           
   795                           ;main.c: 66: lcd_goto(0x42);
   796  008E  3042               	movlw	66
   797  008F  120A  118A  233E  120A  118A  	fcall	_lcd_goto
   798                           
   799                           ;main.c: 67: lcd_bcd(1,RC7);
   800  0094  1003               	clrc
   801  0095  1283               	bcf	3,5	;RP0=0, select bank0
   802  0096  1303               	bcf	3,6	;RP1=0, select bank0
   803  0097  1B87               	btfsc	7,7	;volatile
   804  0098  1403               	setc
   805  0099  3000               	movlw	0
   806  009A  1803               	skipnc
   807  009B  3001               	movlw	1
   808  009C  00B4               	movwf	??_main
   809  009D  01B5               	clrf	??_main+1
   810  009E  0834               	movf	??_main,w
   811  009F  00A3               	movwf	lcd_bcd@ui_number
   812  00A0  0835               	movf	??_main+1,w
   813  00A1  00A4               	movwf	lcd_bcd@ui_number+1
   814  00A2  3001               	movlw	1
   815  00A3  120A  118A  2193  120A  118A  	fcall	_lcd_bcd
   816                           
   817                           ;main.c: 68: lcd_goto(0x43);
   818  00A8  3043               	movlw	67
   819  00A9  120A  118A  233E  120A  118A  	fcall	_lcd_goto
   820                           
   821                           ;main.c: 69: lcd_bcd(1,RC6);
   822  00AE  1003               	clrc
   823  00AF  1283               	bcf	3,5	;RP0=0, select bank0
   824  00B0  1303               	bcf	3,6	;RP1=0, select bank0
   825  00B1  1B07               	btfsc	7,6	;volatile
   826  00B2  1403               	setc
   827  00B3  3000               	movlw	0
   828  00B4  1803               	skipnc
   829  00B5  3001               	movlw	1
   830  00B6  00B4               	movwf	??_main
   831  00B7  01B5               	clrf	??_main+1
   832  00B8  0834               	movf	??_main,w
   833  00B9  00A3               	movwf	lcd_bcd@ui_number
   834  00BA  0835               	movf	??_main+1,w
   835  00BB  00A4               	movwf	lcd_bcd@ui_number+1
   836  00BC  3001               	movlw	1
   837  00BD  120A  118A  2193  120A  118A  	fcall	_lcd_bcd
   838                           
   839                           ;main.c: 70: lcd_goto(0x44);
   840  00C2  3044               	movlw	68
   841  00C3  120A  118A  233E  120A  118A  	fcall	_lcd_goto
   842                           
   843                           ;main.c: 71: lcd_bcd(1,RC5);
   844  00C8  1003               	clrc
   845  00C9  1283               	bcf	3,5	;RP0=0, select bank0
   846  00CA  1303               	bcf	3,6	;RP1=0, select bank0
   847  00CB  1A87               	btfsc	7,5	;volatile
   848  00CC  1403               	setc
   849  00CD  3000               	movlw	0
   850  00CE  1803               	skipnc
   851  00CF  3001               	movlw	1
   852  00D0  00B4               	movwf	??_main
   853  00D1  01B5               	clrf	??_main+1
   854  00D2  0834               	movf	??_main,w
   855  00D3  00A3               	movwf	lcd_bcd@ui_number
   856  00D4  0835               	movf	??_main+1,w
   857  00D5  00A4               	movwf	lcd_bcd@ui_number+1
   858  00D6  3001               	movlw	1
   859  00D7  120A  118A  2193  120A  118A  	fcall	_lcd_bcd
   860                           
   861                           ;main.c: 72: lcd_goto(0x45);
   862  00DC  3045               	movlw	69
   863  00DD  120A  118A  233E  120A  118A  	fcall	_lcd_goto
   864                           
   865                           ;main.c: 73: lcd_bcd(1,RC4);
   866  00E2  1003               	clrc
   867  00E3  1283               	bcf	3,5	;RP0=0, select bank0
   868  00E4  1303               	bcf	3,6	;RP1=0, select bank0
   869  00E5  1A07               	btfsc	7,4	;volatile
   870  00E6  1403               	setc
   871  00E7  3000               	movlw	0
   872  00E8  1803               	skipnc
   873  00E9  3001               	movlw	1
   874  00EA  00B4               	movwf	??_main
   875  00EB  01B5               	clrf	??_main+1
   876  00EC  0834               	movf	??_main,w
   877  00ED  00A3               	movwf	lcd_bcd@ui_number
   878  00EE  0835               	movf	??_main+1,w
   879  00EF  00A4               	movwf	lcd_bcd@ui_number+1
   880  00F0  3001               	movlw	1
   881  00F1  120A  118A  2193  120A  118A  	fcall	_lcd_bcd
   882                           
   883                           ;main.c: 74: lcd_goto(0x46);
   884  00F6  3046               	movlw	70
   885  00F7  120A  118A  233E  120A  118A  	fcall	_lcd_goto
   886                           
   887                           ;main.c: 75: lcd_bcd(1,RA5);
   888  00FC  1003               	clrc
   889  00FD  1283               	bcf	3,5	;RP0=0, select bank0
   890  00FE  1303               	bcf	3,6	;RP1=0, select bank0
   891  00FF  1A85               	btfsc	5,5	;volatile
   892  0100  1403               	setc
   893  0101  3000               	movlw	0
   894  0102  1803               	skipnc
   895  0103  3001               	movlw	1
   896  0104  00B4               	movwf	??_main
   897  0105  01B5               	clrf	??_main+1
   898  0106  0834               	movf	??_main,w
   899  0107  00A3               	movwf	lcd_bcd@ui_number
   900  0108  0835               	movf	??_main+1,w
   901  0109  00A4               	movwf	lcd_bcd@ui_number+1
   902  010A  3001               	movlw	1
   903  010B  120A  118A  2193  120A  118A  	fcall	_lcd_bcd
   904                           
   905                           ;main.c: 76: lcd_goto(0x47);
   906  0110  3047               	movlw	71
   907  0111  120A  118A  233E  120A  118A  	fcall	_lcd_goto
   908                           
   909                           ;main.c: 77: lcd_bcd(1,RA4);
   910  0116  1003               	clrc
   911  0117  1283               	bcf	3,5	;RP0=0, select bank0
   912  0118  1303               	bcf	3,6	;RP1=0, select bank0
   913  0119  1A05               	btfsc	5,4	;volatile
   914  011A  1403               	setc
   915  011B  3000               	movlw	0
   916  011C  1803               	skipnc
   917  011D  3001               	movlw	1
   918  011E  00B4               	movwf	??_main
   919  011F  01B5               	clrf	??_main+1
   920  0120  0834               	movf	??_main,w
   921  0121  00A3               	movwf	lcd_bcd@ui_number
   922  0122  0835               	movf	??_main+1,w
   923  0123  00A4               	movwf	lcd_bcd@ui_number+1
   924  0124  3001               	movlw	1
   925  0125  120A  118A  2193  120A  118A  	fcall	_lcd_bcd
   926                           
   927                           ;main.c: 78: lcd_goto(0x48);
   928  012A  3048               	movlw	72
   929  012B  120A  118A  233E  120A  118A  	fcall	_lcd_goto
   930                           
   931                           ;main.c: 79: lcd_bcd(1,RA3);
   932  0130  1003               	clrc
   933  0131  1283               	bcf	3,5	;RP0=0, select bank0
   934  0132  1303               	bcf	3,6	;RP1=0, select bank0
   935  0133  1985               	btfsc	5,3	;volatile
   936  0134  1403               	setc
   937  0135  3000               	movlw	0
   938  0136  1803               	skipnc
   939  0137  3001               	movlw	1
   940  0138  00B4               	movwf	??_main
   941  0139  01B5               	clrf	??_main+1
   942  013A  0834               	movf	??_main,w
   943  013B  00A3               	movwf	lcd_bcd@ui_number
   944  013C  0835               	movf	??_main+1,w
   945  013D  00A4               	movwf	lcd_bcd@ui_number+1
   946  013E  3001               	movlw	1
   947  013F  120A  118A  2193  120A  118A  	fcall	_lcd_bcd
   948                           
   949                           ;main.c: 80: lcd_goto(0x49);
   950  0144  3049               	movlw	73
   951  0145  120A  118A  233E  120A  118A  	fcall	_lcd_goto
   952                           
   953                           ;main.c: 81: lcd_bcd(1,RA2);
   954  014A  1003               	clrc
   955  014B  1283               	bcf	3,5	;RP0=0, select bank0
   956  014C  1303               	bcf	3,6	;RP1=0, select bank0
   957  014D  1905               	btfsc	5,2	;volatile
   958  014E  1403               	setc
   959  014F  3000               	movlw	0
   960  0150  1803               	skipnc
   961  0151  3001               	movlw	1
   962  0152  00B4               	movwf	??_main
   963  0153  01B5               	clrf	??_main+1
   964  0154  0834               	movf	??_main,w
   965  0155  00A3               	movwf	lcd_bcd@ui_number
   966  0156  0835               	movf	??_main+1,w
   967  0157  00A4               	movwf	lcd_bcd@ui_number+1
   968  0158  3001               	movlw	1
   969  0159  120A  118A  2193  120A  118A  	fcall	_lcd_bcd
   970                           
   971                           ;main.c: 82: lcd_goto(0x50);
   972  015E  3050               	movlw	80
   973  015F  120A  118A  233E  120A  118A  	fcall	_lcd_goto
   974                           
   975                           ;main.c: 83: lcd_bcd(1,RA1);
   976  0164  1003               	clrc
   977  0165  1283               	bcf	3,5	;RP0=0, select bank0
   978  0166  1303               	bcf	3,6	;RP1=0, select bank0
   979  0167  1885               	btfsc	5,1	;volatile
   980  0168  1403               	setc
   981  0169  3000               	movlw	0
   982  016A  1803               	skipnc
   983  016B  3001               	movlw	1
   984  016C  00B4               	movwf	??_main
   985  016D  01B5               	clrf	??_main+1
   986  016E  0834               	movf	??_main,w
   987  016F  00A3               	movwf	lcd_bcd@ui_number
   988  0170  0835               	movf	??_main+1,w
   989  0171  00A4               	movwf	lcd_bcd@ui_number+1
   990  0172  3001               	movlw	1
   991  0173  120A  118A  2193  120A  118A  	fcall	_lcd_bcd
   992                           
   993                           ;main.c: 84: lcd_goto(0x51);
   994  0178  3051               	movlw	81
   995  0179  120A  118A  233E  120A  118A  	fcall	_lcd_goto
   996                           
   997                           ;main.c: 85: lcd_bcd(1,RA0);
   998  017E  1003               	clrc
   999  017F  1283               	bcf	3,5	;RP0=0, select bank0
  1000  0180  1303               	bcf	3,6	;RP1=0, select bank0
  1001  0181  1805               	btfsc	5,0	;volatile
  1002  0182  1403               	setc
  1003  0183  3000               	movlw	0
  1004  0184  1803               	skipnc
  1005  0185  3001               	movlw	1
  1006  0186  00B4               	movwf	??_main
  1007  0187  01B5               	clrf	??_main+1
  1008  0188  0834               	movf	??_main,w
  1009  0189  00A3               	movwf	lcd_bcd@ui_number
  1010  018A  0835               	movf	??_main+1,w
  1011  018B  00A4               	movwf	lcd_bcd@ui_number+1
  1012  018C  3001               	movlw	1
  1013  018D  120A  118A  2193  120A  118A  	fcall	_lcd_bcd
  1014  0192  2841               	goto	l948
  1015  0193                     __end_of_main:	
  1016                           
  1017                           	psect	text1
  1018  029F                     __ptext1:	
  1019 ;; *************** function _lcd_initialize *****************
  1020 ;; Defined at:
  1021 ;;		line 100 in file "lcd.c"
  1022 ;; Parameters:    Size  Location     Type
  1023 ;;		None
  1024 ;; Auto vars:     Size  Location     Type
  1025 ;;		None
  1026 ;; Return value:  Size  Location     Type
  1027 ;;                  1    wreg      void 
  1028 ;; Registers used:
  1029 ;;		wreg, status,2, status,0, pclath, cstack
  1030 ;; Tracked objects:
  1031 ;;		On entry : 0/0
  1032 ;;		On exit  : 0/0
  1033 ;;		Unchanged: 0/0
  1034 ;; Data sizes:     COMMON   BANK0   BANK1   BANK3   BANK2
  1035 ;;      Params:         0       0       0       0       0
  1036 ;;      Locals:         0       0       0       0       0
  1037 ;;      Temps:          0       2       0       0       0
  1038 ;;      Totals:         0       2       0       0       0
  1039 ;;Total ram usage:        2 bytes
  1040 ;; Hardware stack levels used:    1
  1041 ;; Hardware stack levels required when called:    4
  1042 ;; This function calls:
  1043 ;;		_lcd_clear
  1044 ;;		_send_lcd_data
  1045 ;;		_set_lcd_e
  1046 ;; This function is called by:
  1047 ;;		_main
  1048 ;; This function uses a non-reentrant model
  1049 ;;
  1050                           
  1051                           
  1052                           ;psect for function _lcd_initialize
  1053  029F                     _lcd_initialize:	
  1054                           
  1055                           ;lcd.c: 104: set_lcd_e(1);
  1056                           
  1057                           ;incstack = 0
  1058                           ; Regs used in _lcd_initialize: [wreg+status,2+status,0+pclath+cstack]
  1059  029F  3001               	movlw	1
  1060  02A0  120A  118A  2362  120A  118A  	fcall	_set_lcd_e
  1061                           
  1062                           ;lcd.c: 105: _delay((unsigned long)((15)*(20000000/4000.0)));
  1063  02A5  3062               	movlw	98
  1064  02A6  1283               	bcf	3,5	;RP0=0, select bank0
  1065  02A7  1303               	bcf	3,6	;RP1=0, select bank0
  1066  02A8  00A1               	movwf	??_lcd_initialize+1
  1067  02A9  3065               	movlw	101
  1068  02AA  00A0               	movwf	??_lcd_initialize
  1069  02AB                     u497:	
  1070  02AB  0BA0               	decfsz	??_lcd_initialize,f
  1071  02AC  2AAB               	goto	u497
  1072  02AD  0BA1               	decfsz	??_lcd_initialize+1,f
  1073  02AE  2AAB               	goto	u497
  1074                           
  1075                           ;lcd.c: 108: send_lcd_data(0, 0b00100000 | 0b00010000 | 0b00001000 | 0b00000000);
  1076  02AF  3038               	movlw	56
  1077  02B0  1283               	bcf	3,5	;RP0=0, select bank0
  1078  02B1  1303               	bcf	3,6	;RP1=0, select bank0
  1079  02B2  00A0               	movwf	??_lcd_initialize
  1080  02B3  0820               	movf	??_lcd_initialize,w
  1081  02B4  00F5               	movwf	send_lcd_data@uc_data
  1082  02B5  3000               	movlw	0
  1083  02B6  120A  118A  22D7  120A  118A  	fcall	_send_lcd_data
  1084                           
  1085                           ;lcd.c: 112: send_lcd_data(0, 0b00000100 | 0b00000010 | 0b00000000);
  1086  02BB  3006               	movlw	6
  1087  02BC  1283               	bcf	3,5	;RP0=0, select bank0
  1088  02BD  1303               	bcf	3,6	;RP1=0, select bank0
  1089  02BE  00A0               	movwf	??_lcd_initialize
  1090  02BF  0820               	movf	??_lcd_initialize,w
  1091  02C0  00F5               	movwf	send_lcd_data@uc_data
  1092  02C1  3000               	movlw	0
  1093  02C2  120A  118A  22D7  120A  118A  	fcall	_send_lcd_data
  1094                           
  1095                           ;lcd.c: 115: send_lcd_data(0, 0b00001000 | 0b00000100 | 0b00000000 | 0b00000000);
  1096  02C7  300C               	movlw	12
  1097  02C8  1283               	bcf	3,5	;RP0=0, select bank0
  1098  02C9  1303               	bcf	3,6	;RP1=0, select bank0
  1099  02CA  00A0               	movwf	??_lcd_initialize
  1100  02CB  0820               	movf	??_lcd_initialize,w
  1101  02CC  00F5               	movwf	send_lcd_data@uc_data
  1102  02CD  3000               	movlw	0
  1103  02CE  120A  118A  22D7  120A  118A  	fcall	_send_lcd_data
  1104                           
  1105                           ;lcd.c: 118: lcd_clear();
  1106  02D3  120A  118A  2381   	fcall	_lcd_clear
  1107  02D6  0008               	return
  1108  02D7                     __end_of_lcd_initialize:	
  1109                           
  1110                           	psect	text2
  1111  0381                     __ptext2:	
  1112 ;; *************** function _lcd_clear *****************
  1113 ;; Defined at:
  1114 ;;		line 136 in file "lcd.c"
  1115 ;; Parameters:    Size  Location     Type
  1116 ;;		None
  1117 ;; Auto vars:     Size  Location     Type
  1118 ;;		None
  1119 ;; Return value:  Size  Location     Type
  1120 ;;                  1    wreg      void 
  1121 ;; Registers used:
  1122 ;;		wreg, status,2, status,0, pclath, cstack
  1123 ;; Tracked objects:
  1124 ;;		On entry : 0/0
  1125 ;;		On exit  : 0/0
  1126 ;;		Unchanged: 0/0
  1127 ;; Data sizes:     COMMON   BANK0   BANK1   BANK3   BANK2
  1128 ;;      Params:         0       0       0       0       0
  1129 ;;      Locals:         0       0       0       0       0
  1130 ;;      Temps:          0       0       0       0       0
  1131 ;;      Totals:         0       0       0       0       0
  1132 ;;Total ram usage:        0 bytes
  1133 ;; Hardware stack levels used:    1
  1134 ;; Hardware stack levels required when called:    3
  1135 ;; This function calls:
  1136 ;;		_send_lcd_data
  1137 ;; This function is called by:
  1138 ;;		_lcd_initialize
  1139 ;; This function uses a non-reentrant model
  1140 ;;
  1141                           
  1142                           
  1143                           ;psect for function _lcd_clear
  1144  0381                     _lcd_clear:	
  1145                           
  1146                           ;lcd.c: 139: send_lcd_data(0, 0b00000001);
  1147                           
  1148                           ;incstack = 0
  1149                           ; Regs used in _lcd_clear: [wreg+status,2+status,0+pclath+cstack]
  1150  0381  01F5               	clrf	send_lcd_data@uc_data
  1151  0382  0AF5               	incf	send_lcd_data@uc_data,f
  1152  0383  3000               	movlw	0
  1153  0384  120A  118A  22D7   	fcall	_send_lcd_data
  1154  0387  0008               	return
  1155  0388                     __end_of_lcd_clear:	
  1156                           
  1157                           	psect	text3
  1158  0378                     __ptext3:	
  1159 ;; *************** function _lcd_home *****************
  1160 ;; Defined at:
  1161 ;;		line 157 in file "lcd.c"
  1162 ;; Parameters:    Size  Location     Type
  1163 ;;		None
  1164 ;; Auto vars:     Size  Location     Type
  1165 ;;		None
  1166 ;; Return value:  Size  Location     Type
  1167 ;;                  1    wreg      void 
  1168 ;; Registers used:
  1169 ;;		wreg, status,2, status,0, pclath, cstack
  1170 ;; Tracked objects:
  1171 ;;		On entry : 0/0
  1172 ;;		On exit  : 0/0
  1173 ;;		Unchanged: 0/0
  1174 ;; Data sizes:     COMMON   BANK0   BANK1   BANK3   BANK2
  1175 ;;      Params:         0       0       0       0       0
  1176 ;;      Locals:         0       0       0       0       0
  1177 ;;      Temps:          1       0       0       0       0
  1178 ;;      Totals:         1       0       0       0       0
  1179 ;;Total ram usage:        1 bytes
  1180 ;; Hardware stack levels used:    1
  1181 ;; Hardware stack levels required when called:    3
  1182 ;; This function calls:
  1183 ;;		_send_lcd_data
  1184 ;; This function is called by:
  1185 ;;		_main
  1186 ;; This function uses a non-reentrant model
  1187 ;;
  1188                           
  1189                           
  1190                           ;psect for function _lcd_home
  1191  0378                     _lcd_home:	
  1192                           
  1193                           ;lcd.c: 160: send_lcd_data(0, 0b00000010);
  1194                           
  1195                           ;incstack = 0
  1196                           ; Regs used in _lcd_home: [wreg+status,2+status,0+pclath+cstack]
  1197  0378  3002               	movlw	2
  1198  0379  00F9               	movwf	??_lcd_home
  1199  037A  0879               	movf	??_lcd_home,w
  1200  037B  00F5               	movwf	send_lcd_data@uc_data
  1201  037C  3000               	movlw	0
  1202  037D  120A  118A  22D7   	fcall	_send_lcd_data
  1203  0380  0008               	return
  1204  0381                     __end_of_lcd_home:	
  1205                           
  1206                           	psect	text4
  1207  033E                     __ptext4:	
  1208 ;; *************** function _lcd_goto *****************
  1209 ;; Defined at:
  1210 ;;		line 199 in file "lcd.c"
  1211 ;; Parameters:    Size  Location     Type
  1212 ;;  uc_position     1    wreg     unsigned char 
  1213 ;; Auto vars:     Size  Location     Type
  1214 ;;  uc_position     1    0[BANK0 ] unsigned char 
  1215 ;; Return value:  Size  Location     Type
  1216 ;;                  1    wreg      void 
  1217 ;; Registers used:
  1218 ;;		wreg, status,2, status,0, pclath, cstack
  1219 ;; Tracked objects:
  1220 ;;		On entry : 0/0
  1221 ;;		On exit  : 0/0
  1222 ;;		Unchanged: 0/0
  1223 ;; Data sizes:     COMMON   BANK0   BANK1   BANK3   BANK2
  1224 ;;      Params:         0       0       0       0       0
  1225 ;;      Locals:         0       1       0       0       0
  1226 ;;      Temps:          1       0       0       0       0
  1227 ;;      Totals:         1       1       0       0       0
  1228 ;;Total ram usage:        2 bytes
  1229 ;; Hardware stack levels used:    1
  1230 ;; Hardware stack levels required when called:    3
  1231 ;; This function calls:
  1232 ;;		_send_lcd_data
  1233 ;; This function is called by:
  1234 ;;		_main
  1235 ;; This function uses a non-reentrant model
  1236 ;;
  1237                           
  1238                           
  1239                           ;psect for function _lcd_goto
  1240  033E                     _lcd_goto:	
  1241                           
  1242                           ;incstack = 0
  1243                           ; Regs used in _lcd_goto: [wreg+status,2+status,0+pclath+cstack]
  1244                           ;lcd_goto@uc_position stored from wreg
  1245  033E  1283               	bcf	3,5	;RP0=0, select bank0
  1246  033F  1303               	bcf	3,6	;RP1=0, select bank0
  1247  0340  00A0               	movwf	lcd_goto@uc_position
  1248                           
  1249                           ;lcd.c: 202: send_lcd_data(0, 0b10000000 | uc_position);
  1250  0341  0820               	movf	lcd_goto@uc_position,w
  1251  0342  3880               	iorlw	128
  1252  0343  00F9               	movwf	??_lcd_goto
  1253  0344  0879               	movf	??_lcd_goto,w
  1254  0345  00F5               	movwf	send_lcd_data@uc_data
  1255  0346  3000               	movlw	0
  1256  0347  120A  118A  22D7   	fcall	_send_lcd_data
  1257  034A  0008               	return
  1258  034B                     __end_of_lcd_goto:	
  1259                           
  1260                           	psect	text5
  1261  0193                     __ptext5:	
  1262 ;; *************** function _lcd_bcd *****************
  1263 ;; Defined at:
  1264 ;;		line 274 in file "lcd.c"
  1265 ;; Parameters:    Size  Location     Type
  1266 ;;  uc_digit        1    wreg     unsigned char 
  1267 ;;  ui_number       2    3[BANK0 ] unsigned int 
  1268 ;; Auto vars:     Size  Location     Type
  1269 ;;  uc_digit        1   19[BANK0 ] unsigned char 
  1270 ;;  ui_decimal     10    9[BANK0 ] unsigned int [5]
  1271 ;; Return value:  Size  Location     Type
  1272 ;;                  1    wreg      void 
  1273 ;; Registers used:
  1274 ;;		wreg, fsr0l, fsr0h, status,2, status,0, pclath, cstack
  1275 ;; Tracked objects:
  1276 ;;		On entry : 0/0
  1277 ;;		On exit  : 0/0
  1278 ;;		Unchanged: 0/0
  1279 ;; Data sizes:     COMMON   BANK0   BANK1   BANK3   BANK2
  1280 ;;      Params:         0       2       0       0       0
  1281 ;;      Locals:         0      11       0       0       0
  1282 ;;      Temps:          0       4       0       0       0
  1283 ;;      Totals:         0      17       0       0       0
  1284 ;;Total ram usage:       17 bytes
  1285 ;; Hardware stack levels used:    1
  1286 ;; Hardware stack levels required when called:    4
  1287 ;; This function calls:
  1288 ;;		___lwdiv
  1289 ;;		___lwmod
  1290 ;;		_lcd_putchar
  1291 ;; This function is called by:
  1292 ;;		_main
  1293 ;; This function uses a non-reentrant model
  1294 ;;
  1295                           
  1296                           
  1297                           ;psect for function _lcd_bcd
  1298  0193                     _lcd_bcd:	
  1299                           
  1300                           ;incstack = 0
  1301                           ; Regs used in _lcd_bcd: [wreg-fsr0h+status,2+status,0+pclath+cstack]
  1302                           ;lcd_bcd@uc_digit stored from wreg
  1303  0193  1283               	bcf	3,5	;RP0=0, select bank0
  1304  0194  1303               	bcf	3,6	;RP1=0, select bank0
  1305  0195  00B3               	movwf	lcd_bcd@uc_digit
  1306                           
  1307                           ;lcd.c: 276: unsigned int ui_decimal[5] ={ 0 };
  1308  0196  3029               	movlw	lcd_bcd@ui_decimal& (0+255)
  1309  0197  0084               	movwf	4
  1310  0198  3036               	movlw	low lcd_bcd@F1134
  1311  0199  00A5               	movwf	??_lcd_bcd
  1312  019A  0804               	movf	4,w
  1313  019B  00A6               	movwf	??_lcd_bcd+1
  1314  019C  300A               	movlw	10
  1315  019D  00A7               	movwf	??_lcd_bcd+2
  1316  019E                     u420:	
  1317  019E  0825               	movf	??_lcd_bcd,w
  1318  019F  0084               	movwf	4
  1319  01A0  1383               	bcf	3,7	;select IRP bank0
  1320  01A1  0800               	movf	0,w
  1321  01A2  00A8               	movwf	??_lcd_bcd+3
  1322  01A3  0AA5               	incf	??_lcd_bcd,f
  1323  01A4  0826               	movf	??_lcd_bcd+1,w
  1324  01A5  0084               	movwf	4
  1325  01A6  0828               	movf	??_lcd_bcd+3,w
  1326  01A7  0080               	movwf	0
  1327  01A8  0AA6               	incf	??_lcd_bcd+1,f
  1328  01A9  0BA7               	decfsz	??_lcd_bcd+2,f
  1329  01AA  299E               	goto	u420
  1330                           
  1331                           ;lcd.c: 278: ui_decimal[4] = ui_number/10000;
  1332  01AB  3010               	movlw	16
  1333  01AC  00F4               	movwf	___lwdiv@divisor
  1334  01AD  3027               	movlw	39
  1335  01AE  00F5               	movwf	___lwdiv@divisor+1
  1336  01AF  0824               	movf	lcd_bcd@ui_number+1,w
  1337  01B0  00F7               	movwf	___lwdiv@dividend+1
  1338  01B1  0823               	movf	lcd_bcd@ui_number,w
  1339  01B2  00F6               	movwf	___lwdiv@dividend
  1340  01B3  120A  118A  2261  120A  118A  	fcall	___lwdiv
  1341  01B8  0875               	movf	?___lwdiv+1,w
  1342  01B9  1283               	bcf	3,5	;RP0=0, select bank0
  1343  01BA  1303               	bcf	3,6	;RP1=0, select bank0
  1344  01BB  00B2               	movwf	lcd_bcd@ui_decimal+9
  1345  01BC  0874               	movf	?___lwdiv,w
  1346  01BD  00B1               	movwf	lcd_bcd@ui_decimal+8
  1347                           
  1348                           ;lcd.c: 279: ui_decimal[3] = ui_number%10000;
  1349  01BE  3010               	movlw	16
  1350  01BF  00F4               	movwf	___lwmod@divisor
  1351  01C0  3027               	movlw	39
  1352  01C1  00F5               	movwf	___lwmod@divisor+1
  1353  01C2  0824               	movf	lcd_bcd@ui_number+1,w
  1354  01C3  00F7               	movwf	___lwmod@dividend+1
  1355  01C4  0823               	movf	lcd_bcd@ui_number,w
  1356  01C5  00F6               	movwf	___lwmod@dividend
  1357  01C6  120A  118A  230C  120A  118A  	fcall	___lwmod
  1358  01CB  0875               	movf	?___lwmod+1,w
  1359  01CC  1283               	bcf	3,5	;RP0=0, select bank0
  1360  01CD  1303               	bcf	3,6	;RP1=0, select bank0
  1361  01CE  00B0               	movwf	lcd_bcd@ui_decimal+7
  1362  01CF  0874               	movf	?___lwmod,w
  1363  01D0  00AF               	movwf	lcd_bcd@ui_decimal+6
  1364                           
  1365                           ;lcd.c: 280: ui_decimal[2] = ui_decimal[3]%1000;
  1366  01D1  30E8               	movlw	232
  1367  01D2  00F4               	movwf	___lwmod@divisor
  1368  01D3  3003               	movlw	3
  1369  01D4  00F5               	movwf	___lwmod@divisor+1
  1370  01D5  0830               	movf	lcd_bcd@ui_decimal+7,w
  1371  01D6  00F7               	movwf	___lwmod@dividend+1
  1372  01D7  082F               	movf	lcd_bcd@ui_decimal+6,w
  1373  01D8  00F6               	movwf	___lwmod@dividend
  1374  01D9  120A  118A  230C  120A  118A  	fcall	___lwmod
  1375  01DE  0875               	movf	?___lwmod+1,w
  1376  01DF  1283               	bcf	3,5	;RP0=0, select bank0
  1377  01E0  1303               	bcf	3,6	;RP1=0, select bank0
  1378  01E1  00AE               	movwf	lcd_bcd@ui_decimal+5
  1379  01E2  0874               	movf	?___lwmod,w
  1380  01E3  00AD               	movwf	lcd_bcd@ui_decimal+4
  1381                           
  1382                           ;lcd.c: 281: ui_decimal[3] = ui_decimal[3]/1000;
  1383  01E4  30E8               	movlw	232
  1384  01E5  00F4               	movwf	___lwdiv@divisor
  1385  01E6  3003               	movlw	3
  1386  01E7  00F5               	movwf	___lwdiv@divisor+1
  1387  01E8  0830               	movf	lcd_bcd@ui_decimal+7,w
  1388  01E9  00F7               	movwf	___lwdiv@dividend+1
  1389  01EA  082F               	movf	lcd_bcd@ui_decimal+6,w
  1390  01EB  00F6               	movwf	___lwdiv@dividend
  1391  01EC  120A  118A  2261  120A  118A  	fcall	___lwdiv
  1392  01F1  0875               	movf	?___lwdiv+1,w
  1393  01F2  1283               	bcf	3,5	;RP0=0, select bank0
  1394  01F3  1303               	bcf	3,6	;RP1=0, select bank0
  1395  01F4  00B0               	movwf	lcd_bcd@ui_decimal+7
  1396  01F5  0874               	movf	?___lwdiv,w
  1397  01F6  00AF               	movwf	lcd_bcd@ui_decimal+6
  1398                           
  1399                           ;lcd.c: 282: ui_decimal[1] = ui_decimal[2]%100;
  1400  01F7  3064               	movlw	100
  1401  01F8  00F4               	movwf	___lwmod@divisor
  1402  01F9  3000               	movlw	0
  1403  01FA  00F5               	movwf	___lwmod@divisor+1
  1404  01FB  082E               	movf	lcd_bcd@ui_decimal+5,w
  1405  01FC  00F7               	movwf	___lwmod@dividend+1
  1406  01FD  082D               	movf	lcd_bcd@ui_decimal+4,w
  1407  01FE  00F6               	movwf	___lwmod@dividend
  1408  01FF  120A  118A  230C  120A  118A  	fcall	___lwmod
  1409  0204  0875               	movf	?___lwmod+1,w
  1410  0205  1283               	bcf	3,5	;RP0=0, select bank0
  1411  0206  1303               	bcf	3,6	;RP1=0, select bank0
  1412  0207  00AC               	movwf	lcd_bcd@ui_decimal+3
  1413  0208  0874               	movf	?___lwmod,w
  1414  0209  00AB               	movwf	lcd_bcd@ui_decimal+2
  1415                           
  1416                           ;lcd.c: 283: ui_decimal[2] = ui_decimal[2]/100;
  1417  020A  3064               	movlw	100
  1418  020B  00F4               	movwf	___lwdiv@divisor
  1419  020C  3000               	movlw	0
  1420  020D  00F5               	movwf	___lwdiv@divisor+1
  1421  020E  082E               	movf	lcd_bcd@ui_decimal+5,w
  1422  020F  00F7               	movwf	___lwdiv@dividend+1
  1423  0210  082D               	movf	lcd_bcd@ui_decimal+4,w
  1424  0211  00F6               	movwf	___lwdiv@dividend
  1425  0212  120A  118A  2261  120A  118A  	fcall	___lwdiv
  1426  0217  0875               	movf	?___lwdiv+1,w
  1427  0218  1283               	bcf	3,5	;RP0=0, select bank0
  1428  0219  1303               	bcf	3,6	;RP1=0, select bank0
  1429  021A  00AE               	movwf	lcd_bcd@ui_decimal+5
  1430  021B  0874               	movf	?___lwdiv,w
  1431  021C  00AD               	movwf	lcd_bcd@ui_decimal+4
  1432                           
  1433                           ;lcd.c: 284: ui_decimal[0] = ui_decimal[1]%10;
  1434  021D  300A               	movlw	10
  1435  021E  00F4               	movwf	___lwmod@divisor
  1436  021F  3000               	movlw	0
  1437  0220  00F5               	movwf	___lwmod@divisor+1
  1438  0221  082C               	movf	lcd_bcd@ui_decimal+3,w
  1439  0222  00F7               	movwf	___lwmod@dividend+1
  1440  0223  082B               	movf	lcd_bcd@ui_decimal+2,w
  1441  0224  00F6               	movwf	___lwmod@dividend
  1442  0225  120A  118A  230C  120A  118A  	fcall	___lwmod
  1443  022A  0875               	movf	?___lwmod+1,w
  1444  022B  1283               	bcf	3,5	;RP0=0, select bank0
  1445  022C  1303               	bcf	3,6	;RP1=0, select bank0
  1446  022D  00AA               	movwf	lcd_bcd@ui_decimal+1
  1447  022E  0874               	movf	?___lwmod,w
  1448  022F  00A9               	movwf	lcd_bcd@ui_decimal
  1449                           
  1450                           ;lcd.c: 285: ui_decimal[1] = ui_decimal[1]/10;
  1451  0230  300A               	movlw	10
  1452  0231  00F4               	movwf	___lwdiv@divisor
  1453  0232  3000               	movlw	0
  1454  0233  00F5               	movwf	___lwdiv@divisor+1
  1455  0234  082C               	movf	lcd_bcd@ui_decimal+3,w
  1456  0235  00F7               	movwf	___lwdiv@dividend+1
  1457  0236  082B               	movf	lcd_bcd@ui_decimal+2,w
  1458  0237  00F6               	movwf	___lwdiv@dividend
  1459  0238  120A  118A  2261  120A  118A  	fcall	___lwdiv
  1460  023D  0875               	movf	?___lwdiv+1,w
  1461  023E  1283               	bcf	3,5	;RP0=0, select bank0
  1462  023F  1303               	bcf	3,6	;RP1=0, select bank0
  1463  0240  00AC               	movwf	lcd_bcd@ui_decimal+3
  1464  0241  0874               	movf	?___lwdiv,w
  1465  0242  00AB               	movwf	lcd_bcd@ui_decimal+2
  1466                           
  1467                           ;lcd.c: 287: if (uc_digit > 5) uc_digit = 5;
  1468  0243  3006               	movlw	6
  1469  0244  0233               	subwf	lcd_bcd@uc_digit,w
  1470  0245  1C03               	skipc
  1471  0246  2A4B               	goto	l910
  1472  0247  3005               	movlw	5
  1473  0248  00A5               	movwf	??_lcd_bcd
  1474  0249  0825               	movf	??_lcd_bcd,w
  1475  024A  00B3               	movwf	lcd_bcd@uc_digit
  1476  024B                     l910:	
  1477                           
  1478                           ;lcd.c: 288: for( ; uc_digit > 0; uc_digit--)
  1479  024B  0833               	movf	lcd_bcd@uc_digit,w
  1480  024C  1903               	btfsc	3,2
  1481  024D  0008               	return
  1482                           
  1483                           ;lcd.c: 289: {
  1484                           ;lcd.c: 290: lcd_putchar(ui_decimal[uc_digit - 1] + 0x30);
  1485  024E  0833               	movf	lcd_bcd@uc_digit,w
  1486  024F  00A5               	movwf	??_lcd_bcd
  1487  0250  0725               	addwf	??_lcd_bcd,w
  1488  0251  3EFE               	addlw	254
  1489  0252  3E29               	addlw	(low (lcd_bcd@ui_decimal| 0))& (0+255)
  1490  0253  0084               	movwf	4
  1491  0254  1383               	bcf	3,7	;select IRP bank0
  1492  0255  0800               	movf	0,w
  1493  0256  3E30               	addlw	48
  1494  0257  120A  118A  234B  120A  118A  	fcall	_lcd_putchar
  1495  025C  3001               	movlw	1
  1496  025D  1283               	bcf	3,5	;RP0=0, select bank0
  1497  025E  1303               	bcf	3,6	;RP1=0, select bank0
  1498  025F  02B3               	subwf	lcd_bcd@uc_digit,f
  1499  0260  2A4B               	goto	l910
  1500  0261                     __end_of_lcd_bcd:	
  1501                           
  1502                           	psect	text6
  1503  034B                     __ptext6:	
  1504 ;; *************** function _lcd_putchar *****************
  1505 ;; Defined at:
  1506 ;;		line 220 in file "lcd.c"
  1507 ;; Parameters:    Size  Location     Type
  1508 ;;  c_data          1    wreg     unsigned char 
  1509 ;; Auto vars:     Size  Location     Type
  1510 ;;  c_data          1    0[BANK0 ] unsigned char 
  1511 ;; Return value:  Size  Location     Type
  1512 ;;                  1    wreg      void 
  1513 ;; Registers used:
  1514 ;;		wreg, status,2, status,0, pclath, cstack
  1515 ;; Tracked objects:
  1516 ;;		On entry : 0/0
  1517 ;;		On exit  : 0/0
  1518 ;;		Unchanged: 0/0
  1519 ;; Data sizes:     COMMON   BANK0   BANK1   BANK3   BANK2
  1520 ;;      Params:         0       0       0       0       0
  1521 ;;      Locals:         0       1       0       0       0
  1522 ;;      Temps:          1       0       0       0       0
  1523 ;;      Totals:         1       1       0       0       0
  1524 ;;Total ram usage:        2 bytes
  1525 ;; Hardware stack levels used:    1
  1526 ;; Hardware stack levels required when called:    3
  1527 ;; This function calls:
  1528 ;;		_send_lcd_data
  1529 ;; This function is called by:
  1530 ;;		_lcd_bcd
  1531 ;;		_lcd_putstr
  1532 ;; This function uses a non-reentrant model
  1533 ;;
  1534                           
  1535                           
  1536                           ;psect for function _lcd_putchar
  1537  034B                     _lcd_putchar:	
  1538                           
  1539                           ;incstack = 0
  1540                           ; Regs used in _lcd_putchar: [wreg+status,2+status,0+pclath+cstack]
  1541                           ;lcd_putchar@c_data stored from wreg
  1542  034B  1283               	bcf	3,5	;RP0=0, select bank0
  1543  034C  1303               	bcf	3,6	;RP1=0, select bank0
  1544  034D  00A0               	movwf	lcd_putchar@c_data
  1545                           
  1546                           ;lcd.c: 223: send_lcd_data(1, (unsigned char)c_data);
  1547  034E  0820               	movf	lcd_putchar@c_data,w
  1548  034F  00F9               	movwf	??_lcd_putchar
  1549  0350  0879               	movf	??_lcd_putchar,w
  1550  0351  00F5               	movwf	send_lcd_data@uc_data
  1551  0352  3001               	movlw	1
  1552  0353  120A  118A  22D7   	fcall	_send_lcd_data
  1553  0356  0008               	return
  1554  0357                     __end_of_lcd_putchar:	
  1555                           
  1556                           	psect	text7
  1557  02D7                     __ptext7:	
  1558 ;; *************** function _send_lcd_data *****************
  1559 ;; Defined at:
  1560 ;;		line 308 in file "lcd.c"
  1561 ;; Parameters:    Size  Location     Type
  1562 ;;  b_rs            1    wreg     unsigned char 
  1563 ;;  uc_data         1    5[COMMON] unsigned char 
  1564 ;; Auto vars:     Size  Location     Type
  1565 ;;  b_rs            1    8[COMMON] unsigned char 
  1566 ;; Return value:  Size  Location     Type
  1567 ;;                  1    wreg      void 
  1568 ;; Registers used:
  1569 ;;		wreg, status,2, status,0, pclath, cstack
  1570 ;; Tracked objects:
  1571 ;;		On entry : 0/0
  1572 ;;		On exit  : 0/0
  1573 ;;		Unchanged: 0/0
  1574 ;; Data sizes:     COMMON   BANK0   BANK1   BANK3   BANK2
  1575 ;;      Params:         1       0       0       0       0
  1576 ;;      Locals:         1       0       0       0       0
  1577 ;;      Temps:          2       0       0       0       0
  1578 ;;      Totals:         4       0       0       0       0
  1579 ;;Total ram usage:        4 bytes
  1580 ;; Hardware stack levels used:    1
  1581 ;; Hardware stack levels required when called:    2
  1582 ;; This function calls:
  1583 ;;		_set_lcd_data
  1584 ;;		_set_lcd_e
  1585 ;;		_set_lcd_rs
  1586 ;; This function is called by:
  1587 ;;		_lcd_initialize
  1588 ;;		_lcd_clear
  1589 ;;		_lcd_home
  1590 ;;		_lcd_goto
  1591 ;;		_lcd_putchar
  1592 ;;		_lcd_2ndline
  1593 ;; This function uses a non-reentrant model
  1594 ;;
  1595                           
  1596                           
  1597                           ;psect for function _send_lcd_data
  1598  02D7                     _send_lcd_data:	
  1599                           
  1600                           ;incstack = 0
  1601                           ; Regs used in _send_lcd_data: [wreg+status,2+status,0+pclath+cstack]
  1602                           ;send_lcd_data@b_rs stored from wreg
  1603  02D7  00F8               	movwf	send_lcd_data@b_rs
  1604                           
  1605                           ;lcd.c: 311: set_lcd_rs(b_rs);
  1606  02D8  0878               	movf	send_lcd_data@b_rs,w
  1607  02D9  120A  118A  2357  120A  118A  	fcall	_set_lcd_rs
  1608                           
  1609                           ;lcd.c: 312: set_lcd_data(uc_data);
  1610  02DE  0875               	movf	send_lcd_data@uc_data,w
  1611  02DF  120A  118A  2388  120A  118A  	fcall	_set_lcd_data
  1612                           
  1613                           ;lcd.c: 315: set_lcd_e(1);
  1614  02E4  3001               	movlw	1
  1615  02E5  120A  118A  2362  120A  118A  	fcall	_set_lcd_e
  1616                           
  1617                           ;lcd.c: 316: _delay((unsigned long)((1)*(20000000/4000.0)));
  1618  02EA  3007               	movlw	7
  1619  02EB  00F7               	movwf	??_send_lcd_data+1
  1620  02EC  307D               	movlw	125
  1621  02ED  00F6               	movwf	??_send_lcd_data
  1622  02EE                     u507:	
  1623  02EE  0BF6               	decfsz	??_send_lcd_data,f
  1624  02EF  2AEE               	goto	u507
  1625  02F0  0BF7               	decfsz	??_send_lcd_data+1,f
  1626  02F1  2AEE               	goto	u507
  1627                           
  1628                           ;lcd.c: 317: set_lcd_e(0);
  1629  02F2  3000               	movlw	0
  1630  02F3  120A  118A  2362  120A  118A  	fcall	_set_lcd_e
  1631                           
  1632                           ;lcd.c: 318: _delay((unsigned long)((2)*(20000000/4000.0)));
  1633  02F8  300D               	movlw	13
  1634  02F9  00F7               	movwf	??_send_lcd_data+1
  1635  02FA  30FB               	movlw	251
  1636  02FB  00F6               	movwf	??_send_lcd_data
  1637  02FC                     u517:	
  1638  02FC  0BF6               	decfsz	??_send_lcd_data,f
  1639  02FD  2AFC               	goto	u517
  1640  02FE  0BF7               	decfsz	??_send_lcd_data+1,f
  1641  02FF  2AFC               	goto	u517
  1642  0300  2B01               	nop2
  1643                           
  1644                           ;lcd.c: 321: set_lcd_rs(0);
  1645  0301  3000               	movlw	0
  1646  0302  120A  118A  2357  120A  118A  	fcall	_set_lcd_rs
  1647                           
  1648                           ;lcd.c: 322: set_lcd_data(0);
  1649  0307  3000               	movlw	0
  1650  0308  120A  118A  2388   	fcall	_set_lcd_data
  1651  030B  0008               	return
  1652  030C                     __end_of_send_lcd_data:	
  1653                           
  1654                           	psect	text8
  1655  0357                     __ptext8:	
  1656 ;; *************** function _set_lcd_rs *****************
  1657 ;; Defined at:
  1658 ;;		line 360 in file "lcd.c"
  1659 ;; Parameters:    Size  Location     Type
  1660 ;;  b_output        1    wreg     unsigned char 
  1661 ;; Auto vars:     Size  Location     Type
  1662 ;;  b_output        1    4[COMMON] unsigned char 
  1663 ;; Return value:  Size  Location     Type
  1664 ;;                  1    wreg      void 
  1665 ;; Registers used:
  1666 ;;		wreg
  1667 ;; Tracked objects:
  1668 ;;		On entry : 0/0
  1669 ;;		On exit  : 0/0
  1670 ;;		Unchanged: 0/0
  1671 ;; Data sizes:     COMMON   BANK0   BANK1   BANK3   BANK2
  1672 ;;      Params:         0       0       0       0       0
  1673 ;;      Locals:         1       0       0       0       0
  1674 ;;      Temps:          0       0       0       0       0
  1675 ;;      Totals:         1       0       0       0       0
  1676 ;;Total ram usage:        1 bytes
  1677 ;; Hardware stack levels used:    1
  1678 ;; Hardware stack levels required when called:    1
  1679 ;; This function calls:
  1680 ;;		Nothing
  1681 ;; This function is called by:
  1682 ;;		_send_lcd_data
  1683 ;; This function uses a non-reentrant model
  1684 ;;
  1685                           
  1686                           
  1687                           ;psect for function _set_lcd_rs
  1688  0357                     _set_lcd_rs:	
  1689                           
  1690                           ;incstack = 0
  1691                           ; Regs used in _set_lcd_rs: [wreg]
  1692                           ;set_lcd_rs@b_output stored from wreg
  1693  0357  00F4               	movwf	set_lcd_rs@b_output
  1694                           
  1695                           ;lcd.c: 362: RB4 = b_output;
  1696  0358  1C74               	btfss	set_lcd_rs@b_output,0
  1697  0359  2B5E               	goto	u270
  1698  035A  1283               	bcf	3,5	;RP0=0, select bank0
  1699  035B  1303               	bcf	3,6	;RP1=0, select bank0
  1700  035C  1606               	bsf	6,4	;volatile
  1701  035D  0008               	return
  1702  035E                     u270:	
  1703  035E  1283               	bcf	3,5	;RP0=0, select bank0
  1704  035F  1303               	bcf	3,6	;RP1=0, select bank0
  1705  0360  1206               	bcf	6,4	;volatile
  1706  0361  0008               	return
  1707  0362                     __end_of_set_lcd_rs:	
  1708                           
  1709                           	psect	text9
  1710  0362                     __ptext9:	
  1711 ;; *************** function _set_lcd_e *****************
  1712 ;; Defined at:
  1713 ;;		line 340 in file "lcd.c"
  1714 ;; Parameters:    Size  Location     Type
  1715 ;;  b_output        1    wreg     unsigned char 
  1716 ;; Auto vars:     Size  Location     Type
  1717 ;;  b_output        1    4[COMMON] unsigned char 
  1718 ;; Return value:  Size  Location     Type
  1719 ;;                  1    wreg      void 
  1720 ;; Registers used:
  1721 ;;		wreg
  1722 ;; Tracked objects:
  1723 ;;		On entry : 0/0
  1724 ;;		On exit  : 0/0
  1725 ;;		Unchanged: 0/0
  1726 ;; Data sizes:     COMMON   BANK0   BANK1   BANK3   BANK2
  1727 ;;      Params:         0       0       0       0       0
  1728 ;;      Locals:         1       0       0       0       0
  1729 ;;      Temps:          0       0       0       0       0
  1730 ;;      Totals:         1       0       0       0       0
  1731 ;;Total ram usage:        1 bytes
  1732 ;; Hardware stack levels used:    1
  1733 ;; Hardware stack levels required when called:    1
  1734 ;; This function calls:
  1735 ;;		Nothing
  1736 ;; This function is called by:
  1737 ;;		_lcd_initialize
  1738 ;;		_send_lcd_data
  1739 ;; This function uses a non-reentrant model
  1740 ;;
  1741                           
  1742                           
  1743                           ;psect for function _set_lcd_e
  1744  0362                     _set_lcd_e:	
  1745                           
  1746                           ;incstack = 0
  1747                           ; Regs used in _set_lcd_e: [wreg]
  1748                           ;set_lcd_e@b_output stored from wreg
  1749  0362  00F4               	movwf	set_lcd_e@b_output
  1750                           
  1751                           ;lcd.c: 342: RB5 = b_output;
  1752  0363  1C74               	btfss	set_lcd_e@b_output,0
  1753  0364  2B69               	goto	u250
  1754  0365  1283               	bcf	3,5	;RP0=0, select bank0
  1755  0366  1303               	bcf	3,6	;RP1=0, select bank0
  1756  0367  1686               	bsf	6,5	;volatile
  1757  0368  0008               	return
  1758  0369                     u250:	
  1759  0369  1283               	bcf	3,5	;RP0=0, select bank0
  1760  036A  1303               	bcf	3,6	;RP1=0, select bank0
  1761  036B  1286               	bcf	6,5	;volatile
  1762  036C  0008               	return
  1763  036D                     __end_of_set_lcd_e:	
  1764                           
  1765                           	psect	text10
  1766  0388                     __ptext10:	
  1767 ;; *************** function _set_lcd_data *****************
  1768 ;; Defined at:
  1769 ;;		line 380 in file "lcd.c"
  1770 ;; Parameters:    Size  Location     Type
  1771 ;;  uc_data         1    wreg     unsigned char 
  1772 ;; Auto vars:     Size  Location     Type
  1773 ;;  uc_data         1    4[COMMON] unsigned char 
  1774 ;; Return value:  Size  Location     Type
  1775 ;;                  1    wreg      void 
  1776 ;; Registers used:
  1777 ;;		wreg
  1778 ;; Tracked objects:
  1779 ;;		On entry : 0/0
  1780 ;;		On exit  : 0/0
  1781 ;;		Unchanged: 0/0
  1782 ;; Data sizes:     COMMON   BANK0   BANK1   BANK3   BANK2
  1783 ;;      Params:         0       0       0       0       0
  1784 ;;      Locals:         1       0       0       0       0
  1785 ;;      Temps:          0       0       0       0       0
  1786 ;;      Totals:         1       0       0       0       0
  1787 ;;Total ram usage:        1 bytes
  1788 ;; Hardware stack levels used:    1
  1789 ;; Hardware stack levels required when called:    1
  1790 ;; This function calls:
  1791 ;;		Nothing
  1792 ;; This function is called by:
  1793 ;;		_send_lcd_data
  1794 ;; This function uses a non-reentrant model
  1795 ;;
  1796                           
  1797                           
  1798                           ;psect for function _set_lcd_data
  1799  0388                     _set_lcd_data:	
  1800                           
  1801                           ;incstack = 0
  1802                           ; Regs used in _set_lcd_data: [wreg]
  1803                           ;set_lcd_data@uc_data stored from wreg
  1804  0388  00F4               	movwf	set_lcd_data@uc_data
  1805                           
  1806                           ;lcd.c: 382: PORTD = uc_data;
  1807  0389  0874               	movf	set_lcd_data@uc_data,w
  1808  038A  1283               	bcf	3,5	;RP0=0, select bank0
  1809  038B  1303               	bcf	3,6	;RP1=0, select bank0
  1810  038C  0088               	movwf	8	;volatile
  1811  038D  0008               	return
  1812  038E                     __end_of_set_lcd_data:	
  1813                           
  1814                           	psect	text11
  1815  030C                     __ptext11:	
  1816 ;; *************** function ___lwmod *****************
  1817 ;; Defined at:
  1818 ;;		line 6 in file "C:\Program Files (x86)\Microchip\xc8\v1.45\sources\common\lwmod.c"
  1819 ;; Parameters:    Size  Location     Type
  1820 ;;  divisor         2    4[COMMON] unsigned int 
  1821 ;;  dividend        2    6[COMMON] unsigned int 
  1822 ;; Auto vars:     Size  Location     Type
  1823 ;;  counter         1    9[COMMON] unsigned char 
  1824 ;; Return value:  Size  Location     Type
  1825 ;;                  2    4[COMMON] unsigned int 
  1826 ;; Registers used:
  1827 ;;		wreg, status,2, status,0
  1828 ;; Tracked objects:
  1829 ;;		On entry : 0/0
  1830 ;;		On exit  : 0/0
  1831 ;;		Unchanged: 0/0
  1832 ;; Data sizes:     COMMON   BANK0   BANK1   BANK3   BANK2
  1833 ;;      Params:         4       0       0       0       0
  1834 ;;      Locals:         1       0       0       0       0
  1835 ;;      Temps:          1       0       0       0       0
  1836 ;;      Totals:         6       0       0       0       0
  1837 ;;Total ram usage:        6 bytes
  1838 ;; Hardware stack levels used:    1
  1839 ;; Hardware stack levels required when called:    1
  1840 ;; This function calls:
  1841 ;;		Nothing
  1842 ;; This function is called by:
  1843 ;;		_lcd_bcd
  1844 ;; This function uses a non-reentrant model
  1845 ;;
  1846                           
  1847                           
  1848                           ;psect for function ___lwmod
  1849  030C                     ___lwmod:	
  1850                           
  1851                           ;incstack = 0
  1852                           ; Regs used in ___lwmod: [wreg+status,2+status,0]
  1853  030C  0874               	movf	___lwmod@divisor,w
  1854  030D  0475               	iorwf	___lwmod@divisor+1,w
  1855  030E  1903               	btfsc	3,2
  1856  030F  2B39               	goto	l870
  1857  0310  01F9               	clrf	___lwmod@counter
  1858  0311  0AF9               	incf	___lwmod@counter,f
  1859  0312                     l860:	
  1860  0312  1BF5               	btfsc	___lwmod@divisor+1,7
  1861  0313  2B20               	goto	l862
  1862  0314  3001               	movlw	1
  1863  0315                     u375:	
  1864  0315  1003               	clrc
  1865  0316  0DF4               	rlf	___lwmod@divisor,f
  1866  0317  0DF5               	rlf	___lwmod@divisor+1,f
  1867  0318  3EFF               	addlw	-1
  1868  0319  1D03               	skipz
  1869  031A  2B15               	goto	u375
  1870  031B  3001               	movlw	1
  1871  031C  00F8               	movwf	??___lwmod
  1872  031D  0878               	movf	??___lwmod,w
  1873  031E  07F9               	addwf	___lwmod@counter,f
  1874  031F  2B12               	goto	l860
  1875  0320                     l862:	
  1876  0320  0875               	movf	___lwmod@divisor+1,w
  1877  0321  0277               	subwf	___lwmod@dividend+1,w
  1878  0322  1D03               	skipz
  1879  0323  2B26               	goto	u395
  1880  0324  0874               	movf	___lwmod@divisor,w
  1881  0325  0276               	subwf	___lwmod@dividend,w
  1882  0326                     u395:	
  1883  0326  1C03               	skipc
  1884  0327  2B2E               	goto	l866
  1885  0328  0874               	movf	___lwmod@divisor,w
  1886  0329  02F6               	subwf	___lwmod@dividend,f
  1887  032A  0875               	movf	___lwmod@divisor+1,w
  1888  032B  1C03               	skipc
  1889  032C  03F7               	decf	___lwmod@dividend+1,f
  1890  032D  02F7               	subwf	___lwmod@dividend+1,f
  1891  032E                     l866:	
  1892  032E  3001               	movlw	1
  1893  032F                     u405:	
  1894  032F  1003               	clrc
  1895  0330  0CF5               	rrf	___lwmod@divisor+1,f
  1896  0331  0CF4               	rrf	___lwmod@divisor,f
  1897  0332  3EFF               	addlw	-1
  1898  0333  1D03               	skipz
  1899  0334  2B2F               	goto	u405
  1900  0335  3001               	movlw	1
  1901  0336  02F9               	subwf	___lwmod@counter,f
  1902  0337  1D03               	btfss	3,2
  1903  0338  2B20               	goto	l862
  1904  0339                     l870:	
  1905  0339  0877               	movf	___lwmod@dividend+1,w
  1906  033A  00F5               	movwf	?___lwmod+1
  1907  033B  0876               	movf	___lwmod@dividend,w
  1908  033C  00F4               	movwf	?___lwmod
  1909  033D  0008               	return
  1910  033E                     __end_of___lwmod:	
  1911                           
  1912                           	psect	text12
  1913  0261                     __ptext12:	
  1914 ;; *************** function ___lwdiv *****************
  1915 ;; Defined at:
  1916 ;;		line 6 in file "C:\Program Files (x86)\Microchip\xc8\v1.45\sources\common\lwdiv.c"
  1917 ;; Parameters:    Size  Location     Type
  1918 ;;  divisor         2    4[COMMON] unsigned int 
  1919 ;;  dividend        2    6[COMMON] unsigned int 
  1920 ;; Auto vars:     Size  Location     Type
  1921 ;;  quotient        2    0[BANK0 ] unsigned int 
  1922 ;;  counter         1    2[BANK0 ] unsigned char 
  1923 ;; Return value:  Size  Location     Type
  1924 ;;                  2    4[COMMON] unsigned int 
  1925 ;; Registers used:
  1926 ;;		wreg, status,2, status,0
  1927 ;; Tracked objects:
  1928 ;;		On entry : 0/0
  1929 ;;		On exit  : 0/0
  1930 ;;		Unchanged: 0/0
  1931 ;; Data sizes:     COMMON   BANK0   BANK1   BANK3   BANK2
  1932 ;;      Params:         4       0       0       0       0
  1933 ;;      Locals:         0       3       0       0       0
  1934 ;;      Temps:          1       0       0       0       0
  1935 ;;      Totals:         5       3       0       0       0
  1936 ;;Total ram usage:        8 bytes
  1937 ;; Hardware stack levels used:    1
  1938 ;; Hardware stack levels required when called:    1
  1939 ;; This function calls:
  1940 ;;		Nothing
  1941 ;; This function is called by:
  1942 ;;		_lcd_bcd
  1943 ;; This function uses a non-reentrant model
  1944 ;;
  1945                           
  1946                           
  1947                           ;psect for function ___lwdiv
  1948  0261                     ___lwdiv:	
  1949                           
  1950                           ;incstack = 0
  1951                           ; Regs used in ___lwdiv: [wreg+status,2+status,0]
  1952  0261  1283               	bcf	3,5	;RP0=0, select bank0
  1953  0262  1303               	bcf	3,6	;RP1=0, select bank0
  1954  0263  01A0               	clrf	___lwdiv@quotient
  1955  0264  01A1               	clrf	___lwdiv@quotient+1
  1956  0265  0874               	movf	___lwdiv@divisor,w
  1957  0266  0475               	iorwf	___lwdiv@divisor+1,w
  1958  0267  1903               	btfsc	3,2
  1959  0268  2A9A               	goto	l848
  1960  0269  01A2               	clrf	___lwdiv@counter
  1961  026A  0AA2               	incf	___lwdiv@counter,f
  1962  026B                     l836:	
  1963  026B  1BF5               	btfsc	___lwdiv@divisor+1,7
  1964  026C  2A79               	goto	l838
  1965  026D  3001               	movlw	1
  1966  026E                     u305:	
  1967  026E  1003               	clrc
  1968  026F  0DF4               	rlf	___lwdiv@divisor,f
  1969  0270  0DF5               	rlf	___lwdiv@divisor+1,f
  1970  0271  3EFF               	addlw	-1
  1971  0272  1D03               	skipz
  1972  0273  2A6E               	goto	u305
  1973  0274  3001               	movlw	1
  1974  0275  00F8               	movwf	??___lwdiv
  1975  0276  0878               	movf	??___lwdiv,w
  1976  0277  07A2               	addwf	___lwdiv@counter,f
  1977  0278  2A6B               	goto	l836
  1978  0279                     l838:	
  1979  0279  3001               	movlw	1
  1980  027A                     u325:	
  1981  027A  1003               	clrc
  1982  027B  0DA0               	rlf	___lwdiv@quotient,f
  1983  027C  0DA1               	rlf	___lwdiv@quotient+1,f
  1984  027D  3EFF               	addlw	-1
  1985  027E  1D03               	skipz
  1986  027F  2A7A               	goto	u325
  1987  0280  0875               	movf	___lwdiv@divisor+1,w
  1988  0281  0277               	subwf	___lwdiv@dividend+1,w
  1989  0282  1D03               	skipz
  1990  0283  2A86               	goto	u335
  1991  0284  0874               	movf	___lwdiv@divisor,w
  1992  0285  0276               	subwf	___lwdiv@dividend,w
  1993  0286                     u335:	
  1994  0286  1C03               	skipc
  1995  0287  2A8F               	goto	l844
  1996  0288  0874               	movf	___lwdiv@divisor,w
  1997  0289  02F6               	subwf	___lwdiv@dividend,f
  1998  028A  0875               	movf	___lwdiv@divisor+1,w
  1999  028B  1C03               	skipc
  2000  028C  03F7               	decf	___lwdiv@dividend+1,f
  2001  028D  02F7               	subwf	___lwdiv@dividend+1,f
  2002  028E  1420               	bsf	___lwdiv@quotient,0
  2003  028F                     l844:	
  2004  028F  3001               	movlw	1
  2005  0290                     u345:	
  2006  0290  1003               	clrc
  2007  0291  0CF5               	rrf	___lwdiv@divisor+1,f
  2008  0292  0CF4               	rrf	___lwdiv@divisor,f
  2009  0293  3EFF               	addlw	-1
  2010  0294  1D03               	skipz
  2011  0295  2A90               	goto	u345
  2012  0296  3001               	movlw	1
  2013  0297  02A2               	subwf	___lwdiv@counter,f
  2014  0298  1D03               	btfss	3,2
  2015  0299  2A79               	goto	l838
  2016  029A                     l848:	
  2017  029A  0821               	movf	___lwdiv@quotient+1,w
  2018  029B  00F5               	movwf	?___lwdiv+1
  2019  029C  0820               	movf	___lwdiv@quotient,w
  2020  029D  00F4               	movwf	?___lwdiv
  2021  029E  0008               	return
  2022  029F                     __end_of___lwdiv:	
  2023                           
  2024                           	psect	text13
  2025  038E                     __ptext13:	
  2026 ;; *************** function _InitApp *****************
  2027 ;; Defined at:
  2028 ;;		line 22 in file "user.c"
  2029 ;; Parameters:    Size  Location     Type
  2030 ;;		None
  2031 ;; Auto vars:     Size  Location     Type
  2032 ;;		None
  2033 ;; Return value:  Size  Location     Type
  2034 ;;                  1    wreg      void 
  2035 ;; Registers used:
  2036 ;;		None
  2037 ;; Tracked objects:
  2038 ;;		On entry : 0/0
  2039 ;;		On exit  : 0/0
  2040 ;;		Unchanged: 0/0
  2041 ;; Data sizes:     COMMON   BANK0   BANK1   BANK3   BANK2
  2042 ;;      Params:         0       0       0       0       0
  2043 ;;      Locals:         0       0       0       0       0
  2044 ;;      Temps:          0       0       0       0       0
  2045 ;;      Totals:         0       0       0       0       0
  2046 ;;Total ram usage:        0 bytes
  2047 ;; Hardware stack levels used:    1
  2048 ;; Hardware stack levels required when called:    1
  2049 ;; This function calls:
  2050 ;;		Nothing
  2051 ;; This function is called by:
  2052 ;;		_main
  2053 ;; This function uses a non-reentrant model
  2054 ;;
  2055                           
  2056                           
  2057                           ;psect for function _InitApp
  2058  038E                     _InitApp:	
  2059                           
  2060                           ;incstack = 0
  2061                           ; Regs used in _InitApp: []
  2062  038E  0008               	return
  2063  038F                     __end_of_InitApp:	
  2064                           
  2065                           	psect	text14
  2066  036D                     __ptext14:	
  2067 ;; *************** function _isr *****************
  2068 ;; Defined at:
  2069 ;;		line 23 in file "interrupts.c"
  2070 ;; Parameters:    Size  Location     Type
  2071 ;;		None
  2072 ;; Auto vars:     Size  Location     Type
  2073 ;;		None
  2074 ;; Return value:  Size  Location     Type
  2075 ;;                  1    wreg      void 
  2076 ;; Registers used:
  2077 ;;		None
  2078 ;; Tracked objects:
  2079 ;;		On entry : 0/0
  2080 ;;		On exit  : 0/0
  2081 ;;		Unchanged: 0/0
  2082 ;; Data sizes:     COMMON   BANK0   BANK1   BANK3   BANK2
  2083 ;;      Params:         0       0       0       0       0
  2084 ;;      Locals:         0       0       0       0       0
  2085 ;;      Temps:          4       0       0       0       0
  2086 ;;      Totals:         4       0       0       0       0
  2087 ;;Total ram usage:        4 bytes
  2088 ;; Hardware stack levels used:    1
  2089 ;; This function calls:
  2090 ;;		Nothing
  2091 ;; This function is called by:
  2092 ;;		Interrupt level 1
  2093 ;; This function uses a non-reentrant model
  2094 ;;
  2095                           
  2096                           
  2097                           ;psect for function _isr
  2098  036D                     _isr:	
  2099  036D  0873               	movf	??_isr+3,w
  2100  036E  00FF               	movwf	127
  2101  036F  0872               	movf	??_isr+2,w
  2102  0370  008A               	movwf	10
  2103  0371  0871               	movf	??_isr+1,w
  2104  0372  0084               	movwf	4
  2105  0373  0E70               	swapf	??_isr^(0+-128),w
  2106  0374  0083               	movwf	3
  2107  0375  0EFE               	swapf	126,f
  2108  0376  0E7E               	swapf	126,w
  2109  0377  0009               	retfie
  2110  0378                     __end_of_isr:	
  2111  007E                     btemp	set	126	;btemp
  2112  007E                     wtemp0	set	126
  2113                           
  2114                           	psect	intentry
  2115  0004                     __pintentry:	
  2116                           ;incstack = 0
  2117                           ; Regs used in _isr: []
  2118                           
  2119  0004                     interrupt_function:	
  2120  007E                     saved_w	set	btemp
  2121  0004  00FE               	movwf	btemp
  2122  0005  0E03               	swapf	3,w
  2123  0006  00F0               	movwf	??_isr
  2124  0007  0804               	movf	4,w
  2125  0008  00F1               	movwf	??_isr+1
  2126  0009  080A               	movf	10,w
  2127  000A  00F2               	movwf	??_isr+2
  2128  000B  1283               	bcf	3,5	;RP0=0, select bank0
  2129  000C  1303               	bcf	3,6	;RP1=0, select bank0
  2130  000D  087F               	movf	btemp+1,w
  2131  000E  00F3               	movwf	??_isr+3
  2132  000F  120A  118A  2B6D   	ljmp	_isr


Data Sizes:
    Strings     0
    Constant    0
    Data        0
    BSS         10
    Persistent  0
    Stack       0

Auto Spaces:
    Space          Size  Autos    Used
    COMMON           14     10      10
    BANK0            80     22      32
    BANK1            80      0       0
    BANK3            96      0       0
    BANK2            96      0       0

Pointer List with Targets:

    None.

Critical Paths under _main in COMMON

    _main->_lcd_goto
    _main->_lcd_home
    _lcd_initialize->_send_lcd_data
    _lcd_clear->_send_lcd_data
    _lcd_home->_send_lcd_data
    _lcd_goto->_send_lcd_data
    _lcd_bcd->___lwmod
    _lcd_bcd->_lcd_putchar
    _lcd_putchar->_send_lcd_data
    _send_lcd_data->_set_lcd_data
    _send_lcd_data->_set_lcd_e
    _send_lcd_data->_set_lcd_rs

Critical Paths under _isr in COMMON

    None.

Critical Paths under _main in BANK0

    _main->_lcd_bcd
    _lcd_bcd->___lwdiv

Critical Paths under _isr in BANK0

    None.

Critical Paths under _main in BANK1

    None.

Critical Paths under _isr in BANK1

    None.

Critical Paths under _main in BANK3

    None.

Critical Paths under _isr in BANK3

    None.

Critical Paths under _main in BANK2

    None.

Critical Paths under _isr in BANK2

    None.

Call Graph Tables:

 ---------------------------------------------------------------------------------
 (Depth) Function   	        Calls       Base Space   Used Autos Params    Refs
 ---------------------------------------------------------------------------------
 (0) _main                                                 2     2      0    5059
                                             20 BANK0      2     2      0
                            _InitApp
                            _lcd_bcd
                           _lcd_goto
                           _lcd_home
                     _lcd_initialize
 ---------------------------------------------------------------------------------
 (1) _lcd_initialize                                       2     2      0    1090
                                              0 BANK0      2     2      0
                          _lcd_clear
                      _send_lcd_data
                          _set_lcd_e
 ---------------------------------------------------------------------------------
 (2) _lcd_clear                                            0     0      0     534
                      _send_lcd_data
 ---------------------------------------------------------------------------------
 (1) _lcd_home                                             1     1      0     534
                                              9 COMMON     1     1      0
                      _send_lcd_data
 ---------------------------------------------------------------------------------
 (1) _lcd_goto                                             2     2      0     556
                                              9 COMMON     1     1      0
                                              0 BANK0      1     1      0
                      _send_lcd_data
 ---------------------------------------------------------------------------------
 (1) _lcd_bcd                                             17    15      2    2879
                                              3 BANK0     17    15      2
                            ___lwdiv
                            ___lwmod
                        _lcd_putchar
 ---------------------------------------------------------------------------------
 (2) _lcd_putchar                                          2     2      0     556
                                              9 COMMON     1     1      0
                                              0 BANK0      1     1      0
                      _send_lcd_data
 ---------------------------------------------------------------------------------
 (2) _send_lcd_data                                        4     3      1     534
                                              5 COMMON     4     3      1
                       _set_lcd_data
                          _set_lcd_e
                         _set_lcd_rs
 ---------------------------------------------------------------------------------
 (3) _set_lcd_rs                                           1     1      0      22
                                              4 COMMON     1     1      0
 ---------------------------------------------------------------------------------
 (2) _set_lcd_e                                            1     1      0      22
                                              4 COMMON     1     1      0
 ---------------------------------------------------------------------------------
 (3) _set_lcd_data                                         1     1      0      22
                                              4 COMMON     1     1      0
 ---------------------------------------------------------------------------------
 (2) ___lwmod                                              6     2      4     583
                                              4 COMMON     6     2      4
 ---------------------------------------------------------------------------------
 (2) ___lwdiv                                              8     4      4     586
                                              4 COMMON     5     1      4
                                              0 BANK0      3     3      0
 ---------------------------------------------------------------------------------
 (1) _InitApp                                              0     0      0       0
 ---------------------------------------------------------------------------------
 Estimated maximum stack depth 3
 ---------------------------------------------------------------------------------
 (Depth) Function   	        Calls       Base Space   Used Autos Params    Refs
 ---------------------------------------------------------------------------------
 (5) _isr                                                  4     4      0       0
                                              0 COMMON     4     4      0
 ---------------------------------------------------------------------------------
 Estimated maximum stack depth 5
 ---------------------------------------------------------------------------------

 Call Graph Graphs:

 _main (ROOT)
   _InitApp
   _lcd_bcd
     ___lwdiv
     ___lwmod
     _lcd_putchar
       _send_lcd_data
         _set_lcd_data
         _set_lcd_e
         _set_lcd_rs
   _lcd_goto
     _send_lcd_data
       _set_lcd_data
       _set_lcd_e
       _set_lcd_rs
   _lcd_home
     _send_lcd_data
       _set_lcd_data
       _set_lcd_e
       _set_lcd_rs
   _lcd_initialize
     _lcd_clear
       _send_lcd_data
         _set_lcd_data
         _set_lcd_e
         _set_lcd_rs
     _send_lcd_data
       _set_lcd_data
       _set_lcd_e
       _set_lcd_rs
     _set_lcd_e

 _isr (ROOT)

 Address spaces:
Name               Size   Autos  Total    Cost      Usage
BITCOMMON            E      0       0       0        0.0%
EEDATA             100      0       0       0        0.0%
NULL                 0      0       0       0        0.0%
CODE                 0      0       0       0        0.0%
COMMON               E      A       A       1       71.4%
BITSFR0              0      0       0       1        0.0%
SFR0                 0      0       0       1        0.0%
BITSFR1              0      0       0       2        0.0%
SFR1                 0      0       0       2        0.0%
STACK                0      0       0       2        0.0%
ABS                  0      0      2A       3        0.0%
BITBANK0            50      0       0       4        0.0%
BITSFR3              0      0       0       4        0.0%
SFR3                 0      0       0       4        0.0%
BANK0               50     16      20       5       40.0%
BITSFR2              0      0       0       5        0.0%
SFR2                 0      0       0       5        0.0%
BITBANK1            50      0       0       6        0.0%
BANK1               50      0       0       7        0.0%
BITBANK3            60      0       0       8        0.0%
BANK3               60      0       0       9        0.0%
BITBANK2            60      0       0      10        0.0%
BANK2               60      0       0      11        0.0%
DATA                 0      0      2A      12        0.0%


Microchip Technology PIC Macro Assembler V1.45 build -152302408 
Symbol Table                                                                                   Mon Apr 23 23:07:06 2018

           ?_lcd_putchar 0070              __CFG_CP$OFF 0000                      l910 024B  
                    l844 028F                      l836 026B                      l860 0312  
                    l838 0279                      l862 0320                      l870 0339  
                    l848 029A                      l866 032E                      l948 0041  
                    _RA0 0028                      _RA1 0029                      _RA2 002A  
                    _RA3 002B                      _RA4 002C                      _RA5 002D  
                    _RC2 003A                      _RB4 0034                      _RC3 003B  
                    _RB5 0035                      _RC4 003C                      _RC5 003D  
                    _RE2 004A                      _RC6 003E                      _RC7 003F  
                    u305 026E                      u250 0369                      u420 019E  
                    u325 027A                      u405 032F                      u270 035E  
                    u335 0286                      u345 0290             __CFG_CPD$OFF 0000  
                    u507 02EE                      u517 02FC                      u375 0315  
                    u395 0326                      u497 02AB                      _isr 036D  
                    fsr0 0004                      indf 0000             __CFG_FOSC$HS 0000  
      set_lcd_e@b_output 0074             __CFG_LVP$OFF 0000                     ?_isr 0070  
           __CFG_WRT$OFF 0000                     _main 0025                     btemp 007E  
          __CFG_BOREN$ON 0000                     start 0012          __end_of_InitApp 038F  
                  ??_isr 0070                    ?_main 0070            __CFG_WDTE$OFF 0000  
        __end_of___lwdiv 029F          __end_of___lwmod 033E                    _PORTA 0005  
                  _PORTB 0006                    _PORTC 0007                    _PORTD 0008  
                  _PORTE 0009                    _TRISA 0085                    _TRISB 0086  
                  _TRISC 0087                    _TRISD 0088                    _TRISE 0089  
   send_lcd_data@uc_data 0075            __CFG_PWRTE$ON 0000          __end_of_lcd_bcd 0261  
                  pclath 000A                    status 0003                    wtemp0 007E  
        __initialization 0015        send_lcd_data@b_rs 0078             __end_of_main 0193  
  __end_of_send_lcd_data 030C                   ??_main 0034                ??_InitApp 0074  
       __end_of_lcd_home 0381         __end_of_lcd_goto 034B                ??___lwdiv 0078  
              ??___lwmod 0078                ??_lcd_bcd 0025     __size_of_lcd_putchar 000C  
                 saved_w 007E         ??_lcd_initialize 0020  __end_of__initialization 0021  
         __pcstackCOMMON 0070       __size_of_lcd_clear 0007               __pbssBANK0 0036  
             __pmaintext 0025               __pintentry 0004       __size_of_set_lcd_e 000B  
              ?_lcd_home 0070                ?_lcd_goto 0070            ?_set_lcd_data 0070  
                _InitApp 038E        __end_of_lcd_clear 0388                  ___lwdiv 0261  
                ___lwmod 030C                  __ptext1 029F                  __ptext2 0381  
                __ptext3 0378                  __ptext4 033E                  __ptext5 0193  
                __ptext6 034B                  __ptext7 02D7                  __ptext8 0357  
                __ptext9 0362                  _lcd_bcd 0193             __size_of_isr 000B  
             ??_lcd_home 0079               ??_lcd_goto 0079     end_of_initialization 0021  
      lcd_bcd@ui_decimal 0029           ??_set_lcd_data 0074        __end_of_set_lcd_e 036D  
             _set_lcd_rs 0357   __size_of_send_lcd_data 0035            ??_lcd_putchar 0079  
      lcd_putchar@c_data 0020      start_initialization 0015       set_lcd_rs@b_output 0074  
            __end_of_isr 0378      lcd_goto@uc_position 0020              ?_set_lcd_rs 0070  
          _send_lcd_data 02D7     __end_of_set_lcd_data 038E      __end_of_lcd_putchar 0357  
              ___latbits 0002            __pcstackBANK0 0020        __size_of_lcd_home 0009  
      __size_of_lcd_goto 000D                 ?_InitApp 0070  __size_of_lcd_initialize 0038  
       ___lwdiv@dividend 0076                 ?___lwdiv 0074                 ?___lwmod 0074  
              _lcd_clear 0381           ?_send_lcd_data 0075                 ?_lcd_bcd 0023  
    __size_of_set_lcd_rs 000B         ___lwdiv@quotient 0020      set_lcd_data@uc_data 0074  
      interrupt_function 0004                _set_lcd_e 0362         lcd_bcd@ui_number 0023  
            _lcd_putchar 034B               ?_lcd_clear 0070         __size_of_InitApp 0001  
             ?_set_lcd_e 0070    __size_of_set_lcd_data 0006          ??_send_lcd_data 0076  
       __size_of___lwdiv 003E         __size_of___lwmod 0032         __size_of_lcd_bcd 00CE  
        ___lwdiv@divisor 0074          ___lwdiv@counter 0022                 __ptext10 0388  
               __ptext11 030C                 __ptext12 0261                 __ptext13 038E  
               __ptext14 036D                 _lcd_home 0378                 _lcd_goto 033E  
          __size_of_main 016E          lcd_bcd@uc_digit 0033             _set_lcd_data 0388  
         _lcd_initialize 029F             ??_set_lcd_rs 0074              ??_lcd_clear 0079  
     __end_of_set_lcd_rs 0362                 intlevel1 0000         ___lwmod@dividend 0076  
 __end_of_lcd_initialize 02D7              ??_set_lcd_e 0074             lcd_bcd@F1134 0036  
        ___lwmod@divisor 0074          ___lwmod@counter 0079          ?_lcd_initialize 0070  
