

Microchip Technology PIC LITE Macro Assembler V1.45 build -152302408 
                                                                                               Sun May 06 19:04:31 2018

Microchip Technology Omniscient Code Generator v1.45 (Free mode) build 201711160504
     1                           	processor	16F877A
     2                           	opt	pw 120
     3                           	opt	lm
     4                           	psect	strings,global,class=STRING,delta=2
     5                           	psect	cinit,global,class=CODE,merge=1,delta=2
     6                           	psect	bssBANK0,global,class=BANK0,space=1,delta=1
     7                           	psect	cstackCOMMON,global,class=COMMON,space=1,delta=1
     8                           	psect	cstackBANK0,global,class=BANK0,space=1,delta=1
     9                           	psect	maintext,global,class=CODE,split=1,delta=2
    10                           	psect	text1,local,class=CODE,merge=1,delta=2
    11                           	psect	text2,local,class=CODE,merge=1,delta=2
    12                           	psect	text3,local,class=CODE,merge=1,delta=2
    13                           	psect	text4,local,class=CODE,merge=1,delta=2
    14                           	psect	text5,local,class=CODE,merge=1,delta=2
    15                           	psect	text6,local,class=CODE,merge=1,delta=2
    16                           	psect	text7,local,class=CODE,merge=1,delta=2
    17                           	psect	text8,local,class=CODE,merge=1,delta=2
    18                           	psect	text9,local,class=CODE,merge=1,delta=2
    19                           	psect	text10,local,class=CODE,merge=1,delta=2
    20                           	psect	text11,local,class=CODE,merge=1,delta=2
    21                           	psect	text12,local,class=CODE,merge=1,delta=2,group=2
    22                           	psect	text13,local,class=CODE,merge=1,delta=2,group=2
    23                           	psect	text14,local,class=CODE,merge=1,delta=2
    24                           	psect	text15,local,class=CODE,merge=1,delta=2
    25                           	psect	text16,local,class=CODE,merge=1,delta=2
    26                           	psect	text17,local,class=CODE,merge=1,delta=2
    27                           	psect	text18,local,class=CODE,merge=1,delta=2
    28                           	psect	text19,local,class=CODE,merge=1,delta=2
    29                           	psect	text20,local,class=CODE,merge=1,delta=2
    30                           	psect	text21,local,class=CODE,merge=1,delta=2
    31                           	psect	text22,local,class=CODE,merge=1,delta=2,group=2
    32                           	dabs	1,0x7E,2
    33  0000                     
    34                           ; Version 1.45
    35                           ; Generated 16/11/2017 GMT
    36                           ; 
    37                           ; Copyright © 2017, Microchip Technology Inc. and its subsidiaries ("Microchip")
    38                           ; All rights reserved.
    39                           ; 
    40                           ; This software is developed by Microchip Technology Inc. and its subsidiaries ("Microch
      +                          ip").
    41                           ; 
    42                           ; Redistribution and use in source and binary forms, with or without modification, are
    43                           ; permitted provided that the following conditions are met:
    44                           ; 
    45                           ;     1. Redistributions of source code must retain the above copyright notice, this lis
      +                          t of
    46                           ;        conditions and the following disclaimer.
    47                           ; 
    48                           ;     2. Redistributions in binary form must reproduce the above copyright notice, this 
      +                          list
    49                           ;        of conditions and the following disclaimer in the documentation and/or other
    50                           ;        materials provided with the distribution.
    51                           ; 
    52                           ;     3. Microchip's name may not be used to endorse or promote products derived from th
      +                          is
    53                           ;        software without specific prior written permission.
    54                           ; 
    55                           ; THIS SOFTWARE IS PROVIDED BY MICROCHIP "AS IS" AND ANY EXPRESS OR IMPLIED WARRANTIES,
    56                           ; INCLUDING, BUT NOT LIMITED TO, THE IMPLIED WARRANTIES OF MERCHANTABILITY AND FITNESS F
      +                          OR
    57                           ; PURPOSE ARE DISCLAIMED.  IN NO EVENT SHALL MICROCHIP BE LIABLE FOR ANY DIRECT, INDIREC
      +                          T,
    58                           ; INCIDENTAL, SPECIAL, EXEMPLARY, OR CONSEQUENTIAL DAMAGES (INCLUDING BUT NOT LIMITED TO
    59                           ; PROCUREMENT OF SUBSTITUTE GOODS OR SERVICES; LOSS OF USE, DATA OR PROFITS; OR BUSINESS
    60                           ; INTERRUPTION) HOWSOEVER CAUSED AND ON ANY THEORY OF LIABILITY, WHETHER IN CONTRACT, ST
      +                          RICT
    61                           ; LIABILITY, OR TORT (INCLUDING NEGLIGENCE OR OTHERWISE) ARISING IN ANY WAY OUT OF THE U
      +                          SE OF
    62                           ; THIS SOFTWARE, EVEN IF ADVISED OF THE POSSIBILITY OF SUCH DAMAGE.
    63                           ; 
    64                           ; 
    65                           ; Code-generator required, PIC16F877A Definitions
    66                           ; 
    67                           ; SFR Addresses
    68  0000                     	;# 
    69  0001                     	;# 
    70  0002                     	;# 
    71  0003                     	;# 
    72  0004                     	;# 
    73  0005                     	;# 
    74  0006                     	;# 
    75  0007                     	;# 
    76  0008                     	;# 
    77  0009                     	;# 
    78  000A                     	;# 
    79  000B                     	;# 
    80  000C                     	;# 
    81  000D                     	;# 
    82  000E                     	;# 
    83  000E                     	;# 
    84  000F                     	;# 
    85  0010                     	;# 
    86  0011                     	;# 
    87  0012                     	;# 
    88  0013                     	;# 
    89  0014                     	;# 
    90  0015                     	;# 
    91  0015                     	;# 
    92  0016                     	;# 
    93  0017                     	;# 
    94  0018                     	;# 
    95  0019                     	;# 
    96  001A                     	;# 
    97  001B                     	;# 
    98  001B                     	;# 
    99  001C                     	;# 
   100  001D                     	;# 
   101  001E                     	;# 
   102  001F                     	;# 
   103  0081                     	;# 
   104  0085                     	;# 
   105  0086                     	;# 
   106  0087                     	;# 
   107  0088                     	;# 
   108  0089                     	;# 
   109  008C                     	;# 
   110  008D                     	;# 
   111  008E                     	;# 
   112  0091                     	;# 
   113  0092                     	;# 
   114  0093                     	;# 
   115  0094                     	;# 
   116  0098                     	;# 
   117  0099                     	;# 
   118  009C                     	;# 
   119  009D                     	;# 
   120  009E                     	;# 
   121  009F                     	;# 
   122  010C                     	;# 
   123  010D                     	;# 
   124  010E                     	;# 
   125  010F                     	;# 
   126  018C                     	;# 
   127  018D                     	;# 
   128  0000                     	;# 
   129  0001                     	;# 
   130  0002                     	;# 
   131  0003                     	;# 
   132  0004                     	;# 
   133  0005                     	;# 
   134  0006                     	;# 
   135  0007                     	;# 
   136  0008                     	;# 
   137  0009                     	;# 
   138  000A                     	;# 
   139  000B                     	;# 
   140  000C                     	;# 
   141  000D                     	;# 
   142  000E                     	;# 
   143  000E                     	;# 
   144  000F                     	;# 
   145  0010                     	;# 
   146  0011                     	;# 
   147  0012                     	;# 
   148  0013                     	;# 
   149  0014                     	;# 
   150  0015                     	;# 
   151  0015                     	;# 
   152  0016                     	;# 
   153  0017                     	;# 
   154  0018                     	;# 
   155  0019                     	;# 
   156  001A                     	;# 
   157  001B                     	;# 
   158  001B                     	;# 
   159  001C                     	;# 
   160  001D                     	;# 
   161  001E                     	;# 
   162  001F                     	;# 
   163  0081                     	;# 
   164  0085                     	;# 
   165  0086                     	;# 
   166  0087                     	;# 
   167  0088                     	;# 
   168  0089                     	;# 
   169  008C                     	;# 
   170  008D                     	;# 
   171  008E                     	;# 
   172  0091                     	;# 
   173  0092                     	;# 
   174  0093                     	;# 
   175  0094                     	;# 
   176  0098                     	;# 
   177  0099                     	;# 
   178  009C                     	;# 
   179  009D                     	;# 
   180  009E                     	;# 
   181  009F                     	;# 
   182  010C                     	;# 
   183  010D                     	;# 
   184  010E                     	;# 
   185  010F                     	;# 
   186  018C                     	;# 
   187  018D                     	;# 
   188  0000                     	;# 
   189  0001                     	;# 
   190  0002                     	;# 
   191  0003                     	;# 
   192  0004                     	;# 
   193  0005                     	;# 
   194  0006                     	;# 
   195  0007                     	;# 
   196  0008                     	;# 
   197  0009                     	;# 
   198  000A                     	;# 
   199  000B                     	;# 
   200  000C                     	;# 
   201  000D                     	;# 
   202  000E                     	;# 
   203  000E                     	;# 
   204  000F                     	;# 
   205  0010                     	;# 
   206  0011                     	;# 
   207  0012                     	;# 
   208  0013                     	;# 
   209  0014                     	;# 
   210  0015                     	;# 
   211  0015                     	;# 
   212  0016                     	;# 
   213  0017                     	;# 
   214  0018                     	;# 
   215  0019                     	;# 
   216  001A                     	;# 
   217  001B                     	;# 
   218  001B                     	;# 
   219  001C                     	;# 
   220  001D                     	;# 
   221  001E                     	;# 
   222  001F                     	;# 
   223  0081                     	;# 
   224  0085                     	;# 
   225  0086                     	;# 
   226  0087                     	;# 
   227  0088                     	;# 
   228  0089                     	;# 
   229  008C                     	;# 
   230  008D                     	;# 
   231  008E                     	;# 
   232  0091                     	;# 
   233  0092                     	;# 
   234  0093                     	;# 
   235  0094                     	;# 
   236  0098                     	;# 
   237  0099                     	;# 
   238  009C                     	;# 
   239  009D                     	;# 
   240  009E                     	;# 
   241  009F                     	;# 
   242  010C                     	;# 
   243  010D                     	;# 
   244  010E                     	;# 
   245  010F                     	;# 
   246  018C                     	;# 
   247  018D                     	;# 
   248  0000                     	;# 
   249  0001                     	;# 
   250  0002                     	;# 
   251  0003                     	;# 
   252  0004                     	;# 
   253  0005                     	;# 
   254  0006                     	;# 
   255  0007                     	;# 
   256  0008                     	;# 
   257  0009                     	;# 
   258  000A                     	;# 
   259  000B                     	;# 
   260  000C                     	;# 
   261  000D                     	;# 
   262  000E                     	;# 
   263  000E                     	;# 
   264  000F                     	;# 
   265  0010                     	;# 
   266  0011                     	;# 
   267  0012                     	;# 
   268  0013                     	;# 
   269  0014                     	;# 
   270  0015                     	;# 
   271  0015                     	;# 
   272  0016                     	;# 
   273  0017                     	;# 
   274  0018                     	;# 
   275  0019                     	;# 
   276  001A                     	;# 
   277  001B                     	;# 
   278  001B                     	;# 
   279  001C                     	;# 
   280  001D                     	;# 
   281  001E                     	;# 
   282  001F                     	;# 
   283  0081                     	;# 
   284  0085                     	;# 
   285  0086                     	;# 
   286  0087                     	;# 
   287  0088                     	;# 
   288  0089                     	;# 
   289  008C                     	;# 
   290  008D                     	;# 
   291  008E                     	;# 
   292  0091                     	;# 
   293  0092                     	;# 
   294  0093                     	;# 
   295  0094                     	;# 
   296  0098                     	;# 
   297  0099                     	;# 
   298  009C                     	;# 
   299  009D                     	;# 
   300  009E                     	;# 
   301  009F                     	;# 
   302  010C                     	;# 
   303  010D                     	;# 
   304  010E                     	;# 
   305  010F                     	;# 
   306  018C                     	;# 
   307  018D                     	;# 
   308  0000                     	;# 
   309  0001                     	;# 
   310  0002                     	;# 
   311  0003                     	;# 
   312  0004                     	;# 
   313  0005                     	;# 
   314  0006                     	;# 
   315  0007                     	;# 
   316  0008                     	;# 
   317  0009                     	;# 
   318  000A                     	;# 
   319  000B                     	;# 
   320  000C                     	;# 
   321  000D                     	;# 
   322  000E                     	;# 
   323  000E                     	;# 
   324  000F                     	;# 
   325  0010                     	;# 
   326  0011                     	;# 
   327  0012                     	;# 
   328  0013                     	;# 
   329  0014                     	;# 
   330  0015                     	;# 
   331  0015                     	;# 
   332  0016                     	;# 
   333  0017                     	;# 
   334  0018                     	;# 
   335  0019                     	;# 
   336  001A                     	;# 
   337  001B                     	;# 
   338  001B                     	;# 
   339  001C                     	;# 
   340  001D                     	;# 
   341  001E                     	;# 
   342  001F                     	;# 
   343  0081                     	;# 
   344  0085                     	;# 
   345  0086                     	;# 
   346  0087                     	;# 
   347  0088                     	;# 
   348  0089                     	;# 
   349  008C                     	;# 
   350  008D                     	;# 
   351  008E                     	;# 
   352  0091                     	;# 
   353  0092                     	;# 
   354  0093                     	;# 
   355  0094                     	;# 
   356  0098                     	;# 
   357  0099                     	;# 
   358  009C                     	;# 
   359  009D                     	;# 
   360  009E                     	;# 
   361  009F                     	;# 
   362  010C                     	;# 
   363  010D                     	;# 
   364  010E                     	;# 
   365  010F                     	;# 
   366  018C                     	;# 
   367  018D                     	;# 
   368  0000                     	;# 
   369  0001                     	;# 
   370  0002                     	;# 
   371  0003                     	;# 
   372  0004                     	;# 
   373  0005                     	;# 
   374  0006                     	;# 
   375  0007                     	;# 
   376  0008                     	;# 
   377  0009                     	;# 
   378  000A                     	;# 
   379  000B                     	;# 
   380  000C                     	;# 
   381  000D                     	;# 
   382  000E                     	;# 
   383  000E                     	;# 
   384  000F                     	;# 
   385  0010                     	;# 
   386  0011                     	;# 
   387  0012                     	;# 
   388  0013                     	;# 
   389  0014                     	;# 
   390  0015                     	;# 
   391  0015                     	;# 
   392  0016                     	;# 
   393  0017                     	;# 
   394  0018                     	;# 
   395  0019                     	;# 
   396  001A                     	;# 
   397  001B                     	;# 
   398  001B                     	;# 
   399  001C                     	;# 
   400  001D                     	;# 
   401  001E                     	;# 
   402  001F                     	;# 
   403  0081                     	;# 
   404  0085                     	;# 
   405  0086                     	;# 
   406  0087                     	;# 
   407  0088                     	;# 
   408  0089                     	;# 
   409  008C                     	;# 
   410  008D                     	;# 
   411  008E                     	;# 
   412  0091                     	;# 
   413  0092                     	;# 
   414  0093                     	;# 
   415  0094                     	;# 
   416  0098                     	;# 
   417  0099                     	;# 
   418  009C                     	;# 
   419  009D                     	;# 
   420  009E                     	;# 
   421  009F                     	;# 
   422  010C                     	;# 
   423  010D                     	;# 
   424  010E                     	;# 
   425  010F                     	;# 
   426  018C                     	;# 
   427  018D                     	;# 
   428  0000                     	;# 
   429  0001                     	;# 
   430  0002                     	;# 
   431  0003                     	;# 
   432  0004                     	;# 
   433  0005                     	;# 
   434  0006                     	;# 
   435  0007                     	;# 
   436  0008                     	;# 
   437  0009                     	;# 
   438  000A                     	;# 
   439  000B                     	;# 
   440  000C                     	;# 
   441  000D                     	;# 
   442  000E                     	;# 
   443  000E                     	;# 
   444  000F                     	;# 
   445  0010                     	;# 
   446  0011                     	;# 
   447  0012                     	;# 
   448  0013                     	;# 
   449  0014                     	;# 
   450  0015                     	;# 
   451  0015                     	;# 
   452  0016                     	;# 
   453  0017                     	;# 
   454  0018                     	;# 
   455  0019                     	;# 
   456  001A                     	;# 
   457  001B                     	;# 
   458  001B                     	;# 
   459  001C                     	;# 
   460  001D                     	;# 
   461  001E                     	;# 
   462  001F                     	;# 
   463  0081                     	;# 
   464  0085                     	;# 
   465  0086                     	;# 
   466  0087                     	;# 
   467  0088                     	;# 
   468  0089                     	;# 
   469  008C                     	;# 
   470  008D                     	;# 
   471  008E                     	;# 
   472  0091                     	;# 
   473  0092                     	;# 
   474  0093                     	;# 
   475  0094                     	;# 
   476  0098                     	;# 
   477  0099                     	;# 
   478  009C                     	;# 
   479  009D                     	;# 
   480  009E                     	;# 
   481  009F                     	;# 
   482  010C                     	;# 
   483  010D                     	;# 
   484  010E                     	;# 
   485  010F                     	;# 
   486  018C                     	;# 
   487  018D                     	;# 
   488  0000                     	;# 
   489  0001                     	;# 
   490  0002                     	;# 
   491  0003                     	;# 
   492  0004                     	;# 
   493  0005                     	;# 
   494  0006                     	;# 
   495  0007                     	;# 
   496  0008                     	;# 
   497  0009                     	;# 
   498  000A                     	;# 
   499  000B                     	;# 
   500  000C                     	;# 
   501  000D                     	;# 
   502  000E                     	;# 
   503  000E                     	;# 
   504  000F                     	;# 
   505  0010                     	;# 
   506  0011                     	;# 
   507  0012                     	;# 
   508  0013                     	;# 
   509  0014                     	;# 
   510  0015                     	;# 
   511  0015                     	;# 
   512  0016                     	;# 
   513  0017                     	;# 
   514  0018                     	;# 
   515  0019                     	;# 
   516  001A                     	;# 
   517  001B                     	;# 
   518  001B                     	;# 
   519  001C                     	;# 
   520  001D                     	;# 
   521  001E                     	;# 
   522  001F                     	;# 
   523  0081                     	;# 
   524  0085                     	;# 
   525  0086                     	;# 
   526  0087                     	;# 
   527  0088                     	;# 
   528  0089                     	;# 
   529  008C                     	;# 
   530  008D                     	;# 
   531  008E                     	;# 
   532  0091                     	;# 
   533  0092                     	;# 
   534  0093                     	;# 
   535  0094                     	;# 
   536  0098                     	;# 
   537  0099                     	;# 
   538  009C                     	;# 
   539  009D                     	;# 
   540  009E                     	;# 
   541  009F                     	;# 
   542  010C                     	;# 
   543  010D                     	;# 
   544  010E                     	;# 
   545  010F                     	;# 
   546  018C                     	;# 
   547  018D                     	;# 
   548  0013                     _SSPBUF	set	19
   549  0014                     _SSPCON	set	20
   550  001E                     _ADRESH	set	30
   551  0008                     _PORTD	set	8
   552  0006                     _PORTB	set	6
   553  0005                     _PORTA	set	5
   554  0034                     _RB4	set	52
   555  0035                     _RB5	set	53
   556  00FA                     _GO_nDONE	set	250
   557  00FB                     _CHS0	set	251
   558  00FC                     _CHS1	set	252
   559  00FD                     _CHS2	set	253
   560  00F8                     _ADON	set	248
   561  00FE                     _ADCS0	set	254
   562  00FF                     _ADCS1	set	255
   563  0094                     _SSPSTAT	set	148
   564  0093                     _SSPADD	set	147
   565  0091                     _SSPCON2	set	145
   566  009E                     _ADRESL	set	158
   567  0088                     _TRISD	set	136
   568  0086                     _TRISB	set	134
   569  0085                     _TRISA	set	133
   570  048C                     _ACKEN	set	1164
   571  048D                     _ACKDT	set	1165
   572  048B                     _RCEN	set	1163
   573  048A                     _PEN	set	1162
   574  0489                     _RSEN	set	1161
   575  0488                     _SEN	set	1160
   576  043C                     _TRISC4	set	1084
   577  043B                     _TRISC3	set	1083
   578  04F8                     _PCFG0	set	1272
   579  04F9                     _PCFG1	set	1273
   580  04FA                     _PCFG2	set	1274
   581  04FB                     _PCFG3	set	1275
   582  04FF                     _ADFM	set	1279
   583                           
   584                           	psect	strings
   585  0003                     __pstrings:	
   586  0003                     stringtab:	
   587  0003                     __stringtab:	
   588  0003                     stringcode:	
   589                           ;	String table - string pointers are 1 byte each
   590                           
   591  0003                     stringdir:	
   592  0003  3000               	movlw	high stringdir
   593  0004  008A               	movwf	10
   594  0005  0804               	movf	4,w
   595  0006  0A84               	incf	4,f
   596  0007  0782               	addwf	2,f
   597  0008                     __stringbase:	
   598  0008  3400               	retlw	0
   599  0009                     __end_of__stringtab:	
   600  0009                     STR_1:	
   601  0009  3461               	retlw	97	;'a'
   602  000A  3464               	retlw	100	;'d'
   603  000B  3464               	retlw	100	;'d'
   604  000C  343A               	retlw	58	;':'
   605  000D  3400               	retlw	0
   606                           
   607                           ; #config settings
   608  0000                     
   609                           	psect	cinit
   610  07F0                     start_initialization:	
   611  07F0                     __initialization:	
   612                           
   613                           ; Clear objects allocated to BANK0
   614  07F0  1283               	bcf	3,5	;RP0=0, select bank0
   615  07F1  1303               	bcf	3,6	;RP1=0, select bank0
   616  07F2  01C3               	clrf	__pbssBANK0& (0+127)
   617  07F3  01C4               	clrf	(__pbssBANK0+1)& (0+127)
   618  07F4  01C5               	clrf	(__pbssBANK0+2)& (0+127)
   619  07F5  01C6               	clrf	(__pbssBANK0+3)& (0+127)
   620  07F6  01C7               	clrf	(__pbssBANK0+4)& (0+127)
   621  07F7  01C8               	clrf	(__pbssBANK0+5)& (0+127)
   622  07F8  01C9               	clrf	(__pbssBANK0+6)& (0+127)
   623  07F9  01CA               	clrf	(__pbssBANK0+7)& (0+127)
   624  07FA  01CB               	clrf	(__pbssBANK0+8)& (0+127)
   625  07FB  01CC               	clrf	(__pbssBANK0+9)& (0+127)
   626  07FC                     end_of_initialization:	
   627                           ;End of C runtime variable initialization code
   628                           
   629  07FC                     __end_of__initialization:	
   630  07FC  0183               	clrf	3
   631  07FD  120A  118A  2EE9   	ljmp	_main	;jump to C main() function
   632                           
   633                           	psect	bssBANK0
   634  0043                     __pbssBANK0:	
   635  0043                     lcd_bcd@F1134:	
   636  0043                     	ds	10
   637                           
   638                           	psect	cstackCOMMON
   639  0070                     __pcstackCOMMON:	
   640  0070                     ?_I2C_Master_Start:	
   641  0070                     ??_I2C_Master_Start:	
   642                           ; 1 bytes @ 0x0
   643                           
   644  0070                     ?_I2C_Master_Write:	
   645                           ; 1 bytes @ 0x0
   646                           
   647  0070                     ?_I2C_Master_Stop:	
   648                           ; 1 bytes @ 0x0
   649                           
   650  0070                     ??_I2C_Master_Stop:	
   651                           ; 1 bytes @ 0x0
   652                           
   653  0070                     ?_InitApp:	
   654                           ; 1 bytes @ 0x0
   655                           
   656  0070                     ??_InitApp:	
   657                           ; 1 bytes @ 0x0
   658                           
   659  0070                     ?_lcd_initialize:	
   660                           ; 1 bytes @ 0x0
   661                           
   662  0070                     ?_lcd_goto:	
   663                           ; 1 bytes @ 0x0
   664                           
   665  0070                     ?_lcd_putstr:	
   666                           ; 1 bytes @ 0x0
   667                           
   668  0070                     ?_set_lcd_e:	
   669                           ; 1 bytes @ 0x0
   670                           
   671  0070                     ??_set_lcd_e:	
   672                           ; 1 bytes @ 0x0
   673                           
   674  0070                     ?_lcd_clear:	
   675                           ; 1 bytes @ 0x0
   676                           
   677  0070                     ?_set_lcd_rs:	
   678                           ; 1 bytes @ 0x0
   679                           
   680  0070                     ??_set_lcd_rs:	
   681                           ; 1 bytes @ 0x0
   682                           
   683  0070                     ?_set_lcd_data:	
   684                           ; 1 bytes @ 0x0
   685                           
   686  0070                     ??_set_lcd_data:	
   687                           ; 1 bytes @ 0x0
   688                           
   689  0070                     ?_main:	
   690                           ; 1 bytes @ 0x0
   691                           
   692  0070                     ?_lcd_2ndline:	
   693                           ; 1 bytes @ 0x0
   694                           
   695  0070                     ?_lcd_putchar:	
   696                           ; 1 bytes @ 0x0
   697                           
   698  0070                     ?_I2C_Master_Wait:	
   699                           ; 1 bytes @ 0x0
   700                           
   701  0070                     ??_I2C_Master_Wait:	
   702                           ; 1 bytes @ 0x0
   703                           
   704  0070                     ?___lwdiv:	
   705                           ; 1 bytes @ 0x0
   706                           
   707  0070                     ?___lwmod:	
   708                           ; 2 bytes @ 0x0
   709                           
   710  0070                     ?___lldiv:	
   711                           ; 2 bytes @ 0x0
   712                           
   713  0070                     set_lcd_e@b_output:	
   714                           ; 4 bytes @ 0x0
   715                           
   716  0070                     set_lcd_rs@b_output:	
   717                           ; 1 bytes @ 0x0
   718                           
   719  0070                     set_lcd_data@uc_data:	
   720                           ; 1 bytes @ 0x0
   721                           
   722  0070                     I2C_Master_Write@d:	
   723                           ; 1 bytes @ 0x0
   724                           
   725  0070                     ___lwdiv@divisor:	
   726                           ; 2 bytes @ 0x0
   727                           
   728  0070                     ___lwmod@divisor:	
   729                           ; 2 bytes @ 0x0
   730                           
   731  0070                     ___lldiv@divisor:	
   732                           ; 2 bytes @ 0x0
   733                           
   734                           
   735                           ; 4 bytes @ 0x0
   736  0070                     	ds	1
   737  0071                     ?_send_lcd_data:	
   738  0071                     send_lcd_data@uc_data:	
   739                           ; 1 bytes @ 0x1
   740                           
   741                           
   742                           ; 1 bytes @ 0x1
   743  0071                     	ds	1
   744  0072                     ??_I2C_Master_Write:	
   745  0072                     ??_send_lcd_data:	
   746                           ; 1 bytes @ 0x2
   747                           
   748  0072                     ?_extGPIOAdir:	
   749                           ; 1 bytes @ 0x2
   750                           
   751  0072                     ?_extGPIOA:	
   752                           ; 1 bytes @ 0x2
   753                           
   754  0072                     extGPIOAdir@a:	
   755                           ; 1 bytes @ 0x2
   756                           
   757  0072                     extGPIOA@a:	
   758                           ; 2 bytes @ 0x2
   759                           
   760  0072                     ___lwdiv@dividend:	
   761                           ; 2 bytes @ 0x2
   762                           
   763  0072                     ___lwmod@dividend:	
   764                           ; 2 bytes @ 0x2
   765                           
   766                           
   767                           ; 2 bytes @ 0x2
   768  0072                     	ds	2
   769  0074                     ??_extGPIOAdir:	
   770  0074                     ??_extGPIOA:	
   771                           ; 1 bytes @ 0x4
   772                           
   773  0074                     ??___lwdiv:	
   774                           ; 1 bytes @ 0x4
   775                           
   776  0074                     ??___lwmod:	
   777                           ; 1 bytes @ 0x4
   778                           
   779  0074                     send_lcd_data@b_rs:	
   780                           ; 1 bytes @ 0x4
   781                           
   782  0074                     ___lldiv@dividend:	
   783                           ; 1 bytes @ 0x4
   784                           
   785                           
   786                           ; 4 bytes @ 0x4
   787  0074                     	ds	1
   788  0075                     ??_lcd_initialize:	
   789  0075                     ??_lcd_goto:	
   790                           ; 1 bytes @ 0x5
   791                           
   792  0075                     ??_lcd_clear:	
   793                           ; 1 bytes @ 0x5
   794                           
   795  0075                     ??_lcd_2ndline:	
   796                           ; 1 bytes @ 0x5
   797                           
   798  0075                     ??_lcd_putchar:	
   799                           ; 1 bytes @ 0x5
   800                           
   801  0075                     ___lwmod@counter:	
   802                           ; 1 bytes @ 0x5
   803                           
   804  0075                     ___lwdiv@quotient:	
   805                           ; 1 bytes @ 0x5
   806                           
   807                           
   808                           ; 2 bytes @ 0x5
   809  0075                     	ds	1
   810  0076                     lcd_goto@uc_position:	
   811  0076                     lcd_putchar@c_data:	
   812                           ; 1 bytes @ 0x6
   813                           
   814                           
   815                           ; 1 bytes @ 0x6
   816  0076                     	ds	1
   817  0077                     ??_lcd_putstr:	
   818  0077                     ___lwdiv@counter:	
   819                           ; 1 bytes @ 0x7
   820                           
   821                           
   822                           ; 1 bytes @ 0x7
   823  0077                     	ds	1
   824  0078                     ?_lcd_bcd:	
   825  0078                     ??___lldiv:	
   826                           ; 1 bytes @ 0x8
   827                           
   828  0078                     lcd_putstr@csz_string:	
   829                           ; 1 bytes @ 0x8
   830                           
   831  0078                     lcd_bcd@ui_number:	
   832                           ; 1 bytes @ 0x8
   833                           
   834                           
   835                           ; 2 bytes @ 0x8
   836  0078                     	ds	1
   837  0079                     ___lldiv@quotient:	
   838                           
   839                           ; 4 bytes @ 0x9
   840  0079                     	ds	1
   841  007A                     ??_lcd_bcd:	
   842                           
   843                           ; 1 bytes @ 0xA
   844  007A                     	ds	3
   845  007D                     ___lldiv@counter:	
   846                           
   847                           ; 1 bytes @ 0xD
   848  007D                     	ds	1
   849                           
   850                           	psect	cstackBANK0
   851  0020                     __pcstackBANK0:	
   852  0020                     ?_I2C_Master_Init:	
   853  0020                     I2C_Master_Init@c:	
   854                           ; 1 bytes @ 0x0
   855                           
   856  0020                     lcd_bcd@ui_decimal:	
   857                           ; 4 bytes @ 0x0
   858                           
   859                           
   860                           ; 10 bytes @ 0x0
   861  0020                     	ds	4
   862  0024                     ??_I2C_Master_Init:	
   863                           
   864                           ; 1 bytes @ 0x4
   865  0024                     	ds	6
   866  002A                     lcd_bcd@uc_digit:	
   867                           
   868                           ; 1 bytes @ 0xA
   869  002A                     	ds	1
   870  002B                     ??_main:	
   871                           
   872                           ; 1 bytes @ 0xB
   873  002B                     	ds	2
   874  002D                     main@Array:	
   875                           
   876                           ; 16 bytes @ 0xD
   877  002D                     	ds	16
   878  003D                     main@add:	
   879                           
   880                           ; 2 bytes @ 0x1D
   881  003D                     	ds	2
   882  003F                     main@i:	
   883                           
   884                           ; 2 bytes @ 0x1F
   885  003F                     	ds	2
   886  0041                     main@i_87:	
   887                           
   888                           ; 2 bytes @ 0x21
   889  0041                     	ds	2
   890                           
   891                           	psect	maintext
   892  06E9                     __pmaintext:	
   893 ;;
   894 ;;Main: autosize = 0, tempsize = 2, incstack = 0, save=0
   895 ;;
   896 ;; *************** function _main *****************
   897 ;; Defined at:
   898 ;;		line 39 in file "main.c"
   899 ;; Parameters:    Size  Location     Type
   900 ;;		None
   901 ;; Auto vars:     Size  Location     Type
   902 ;;  i               2   33[BANK0 ] int 
   903 ;;  i               2   31[BANK0 ] int 
   904 ;;  Array          16   13[BANK0 ] short [8]
   905 ;;  add             2   29[BANK0 ] int 
   906 ;; Return value:  Size  Location     Type
   907 ;;                  1    wreg      void 
   908 ;; Registers used:
   909 ;;		wreg, fsr0l, fsr0h, status,2, status,0, btemp+1, pclath, cstack
   910 ;; Tracked objects:
   911 ;;		On entry : B00/0
   912 ;;		On exit  : 0/0
   913 ;;		Unchanged: 0/0
   914 ;; Data sizes:     COMMON   BANK0   BANK1   BANK3   BANK2
   915 ;;      Params:         0       0       0       0       0
   916 ;;      Locals:         0      22       0       0       0
   917 ;;      Temps:          0       2       0       0       0
   918 ;;      Totals:         0      24       0       0       0
   919 ;;Total ram usage:       24 bytes
   920 ;; Hardware stack levels required when called:    4
   921 ;; This function calls:
   922 ;;		_I2C_Master_Init
   923 ;;		_I2C_Master_Start
   924 ;;		_I2C_Master_Stop
   925 ;;		_I2C_Master_Write
   926 ;;		_InitApp
   927 ;;		_extGPIOA
   928 ;;		_extGPIOAdir
   929 ;;		_lcd_bcd
   930 ;;		_lcd_goto
   931 ;;		_lcd_initialize
   932 ;;		_lcd_putstr
   933 ;; This function is called by:
   934 ;;		Startup code after reset
   935 ;; This function uses a non-reentrant model
   936 ;;
   937                           
   938                           
   939                           ;psect for function _main
   940  06E9                     _main:	
   941                           
   942                           ;main.c: 42: InitApp();
   943                           
   944                           ;incstack = 0
   945                           ; Regs used in _main: [wreg-fsr0h+status,2+status,0+btemp+1+pclath+cstack]
   946  06E9  120A  118A  23D5  120A  118A  	fcall	_InitApp
   947                           
   948                           ;main.c: 44: PORTA = 0;
   949  06EE  1283               	bcf	3,5	;RP0=0, select bank0
   950  06EF  1303               	bcf	3,6	;RP1=0, select bank0
   951  06F0  0185               	clrf	5	;volatile
   952                           
   953                           ;main.c: 45: PORTB = 0;
   954  06F1  0186               	clrf	6	;volatile
   955                           
   956                           ;main.c: 47: PORTD = 0;
   957  06F2  0188               	clrf	8	;volatile
   958                           
   959                           ;main.c: 49: TRISA = 0b11111111;
   960  06F3  30FF               	movlw	255
   961  06F4  1683               	bsf	3,5	;RP0=1, select bank1
   962  06F5  1303               	bcf	3,6	;RP1=0, select bank1
   963  06F6  0085               	movwf	5	;volatile
   964                           
   965                           ;main.c: 50: TRISB = 0b00000011;
   966  06F7  3003               	movlw	3
   967  06F8  0086               	movwf	6	;volatile
   968                           
   969                           ;main.c: 52: TRISD = 0b00000000;
   970  06F9  0188               	clrf	8	;volatile
   971                           
   972                           ;main.c: 54: lcd_initialize();
   973  06FA  120A  118A  247D  120A  118A  	fcall	_lcd_initialize
   974                           
   975                           ;main.c: 57: I2C_Master_Init(400000);
   976  06FF  3000               	movlw	0
   977  0700  1283               	bcf	3,5	;RP0=0, select bank0
   978  0701  1303               	bcf	3,6	;RP1=0, select bank0
   979  0702  00A3               	movwf	I2C_Master_Init@c+3
   980  0703  3006               	movlw	6
   981  0704  00A2               	movwf	I2C_Master_Init@c+2
   982  0705  301A               	movlw	26
   983  0706  00A1               	movwf	I2C_Master_Init@c+1
   984  0707  3080               	movlw	128
   985  0708  00A0               	movwf	I2C_Master_Init@c
   986  0709  120A  118A  2515  120A  118A  	fcall	_I2C_Master_Init
   987                           
   988                           ;main.c: 60: I2C_Master_Start();
   989  070E  120A  118A  23DC  120A  118A  	fcall	_I2C_Master_Start
   990                           
   991                           ;main.c: 61: I2C_Master_Write(0b01000000);
   992  0713  3040               	movlw	64
   993  0714  00F0               	movwf	I2C_Master_Write@d
   994  0715  3000               	movlw	0
   995  0716  00F1               	movwf	I2C_Master_Write@d+1
   996  0717  120A  118A  23F1  120A  118A  	fcall	_I2C_Master_Write
   997                           
   998                           ;main.c: 62: I2C_Master_Write(0x0A);
   999  071C  300A               	movlw	10
  1000  071D  00F0               	movwf	I2C_Master_Write@d
  1001  071E  3000               	movlw	0
  1002  071F  00F1               	movwf	I2C_Master_Write@d+1
  1003  0720  120A  118A  23F1  120A  118A  	fcall	_I2C_Master_Write
  1004                           
  1005                           ;main.c: 63: I2C_Master_Write(0b11101000);
  1006  0725  30E8               	movlw	232
  1007  0726  00F0               	movwf	I2C_Master_Write@d
  1008  0727  3000               	movlw	0
  1009  0728  00F1               	movwf	I2C_Master_Write@d+1
  1010  0729  120A  118A  23F1  120A  118A  	fcall	_I2C_Master_Write
  1011                           
  1012                           ;main.c: 64: I2C_Master_Stop();
  1013  072E  120A  118A  23E3  120A  118A  	fcall	_I2C_Master_Stop
  1014                           
  1015                           ;main.c: 66: extGPIOAdir(0x0);
  1016  0733  3000               	movlw	0
  1017  0734  00F2               	movwf	extGPIOAdir@a
  1018  0735  00F3               	movwf	extGPIOAdir@a+1
  1019  0736  120A  118A  2436  120A  118A  	fcall	_extGPIOAdir
  1020                           
  1021                           ;main.c: 68: short Array[8];
  1022                           ;main.c: 70: Array[0] = 0b00000001;
  1023  073B  3001               	movlw	1
  1024  073C  1283               	bcf	3,5	;RP0=0, select bank0
  1025  073D  1303               	bcf	3,6	;RP1=0, select bank0
  1026  073E  00AD               	movwf	main@Array
  1027  073F  3000               	movlw	0
  1028  0740  00AE               	movwf	main@Array+1
  1029                           
  1030                           ;main.c: 71: Array[1] = 0b00000010;
  1031  0741  3002               	movlw	2
  1032  0742  00AF               	movwf	main@Array+2
  1033  0743  3000               	movlw	0
  1034  0744  00B0               	movwf	main@Array+3
  1035                           
  1036                           ;main.c: 72: Array[2] = 0b00000100;
  1037  0745  3004               	movlw	4
  1038  0746  00B1               	movwf	main@Array+4
  1039  0747  3000               	movlw	0
  1040  0748  00B2               	movwf	main@Array+5
  1041                           
  1042                           ;main.c: 73: Array[3] = 0b00001000;
  1043  0749  3008               	movlw	8
  1044  074A  00B3               	movwf	main@Array+6
  1045  074B  3000               	movlw	0
  1046  074C  00B4               	movwf	main@Array+7
  1047                           
  1048                           ;main.c: 74: Array[4] = 0b00010000;
  1049  074D  3010               	movlw	16
  1050  074E  00B5               	movwf	main@Array+8
  1051  074F  3000               	movlw	0
  1052  0750  00B6               	movwf	main@Array+9
  1053                           
  1054                           ;main.c: 75: Array[5] = 0b00100000;
  1055  0751  3020               	movlw	32
  1056  0752  00B7               	movwf	main@Array+10
  1057  0753  3000               	movlw	0
  1058  0754  00B8               	movwf	main@Array+11
  1059                           
  1060                           ;main.c: 76: Array[6] = 0b01000000;
  1061  0755  3040               	movlw	64
  1062  0756  00B9               	movwf	main@Array+12
  1063  0757  3000               	movlw	0
  1064  0758  00BA               	movwf	main@Array+13
  1065                           
  1066                           ;main.c: 77: Array[7] = 0b10000000;
  1067  0759  3080               	movlw	128
  1068  075A  00BB               	movwf	main@Array+14
  1069  075B  3000               	movlw	0
  1070  075C  00BC               	movwf	main@Array+15
  1071                           
  1072                           ;main.c: 79: int add = 0;
  1073  075D  01BD               	clrf	main@add
  1074  075E  01BE               	clrf	main@add+1
  1075  075F                     l1222:	
  1076                           ;main.c: 81: while(1)
  1077                           
  1078                           
  1079                           ;main.c: 82: {
  1080                           ;main.c: 83: add++;
  1081  075F  3001               	movlw	1
  1082  0760  1283               	bcf	3,5	;RP0=0, select bank0
  1083  0761  1303               	bcf	3,6	;RP1=0, select bank0
  1084  0762  07BD               	addwf	main@add,f
  1085  0763  1803               	skipnc
  1086  0764  0ABE               	incf	main@add+1,f
  1087  0765  3000               	movlw	0
  1088  0766  07BE               	addwf	main@add+1,f
  1089                           
  1090                           ;main.c: 84: for(int i = 0; i <= 7; i++)
  1091  0767  01BF               	clrf	main@i
  1092  0768  01C0               	clrf	main@i+1
  1093  0769  0840               	movf	main@i+1,w
  1094  076A  3A80               	xorlw	128
  1095  076B  00FF               	movwf	127
  1096  076C  3080               	movlw	128
  1097  076D  027F               	subwf	127,w
  1098  076E  1D03               	skipz
  1099  076F  2F72               	goto	u765
  1100  0770  3008               	movlw	8
  1101  0771  023F               	subwf	main@i,w
  1102  0772                     u765:	
  1103  0772  1803               	btfsc	3,0
  1104  0773  2FA4               	goto	l1238
  1105  0774                     l1230:	
  1106                           
  1107                           ;main.c: 85: {
  1108                           ;main.c: 86: extGPIOA(Array[i]);
  1109  0774  1283               	bcf	3,5	;RP0=0, select bank0
  1110  0775  1303               	bcf	3,6	;RP1=0, select bank0
  1111  0776  083F               	movf	main@i,w
  1112  0777  00AB               	movwf	??_main
  1113  0778  072B               	addwf	??_main,w
  1114  0779  3E2D               	addlw	(low (main@Array| 0))& (0+255)
  1115  077A  0084               	movwf	4
  1116  077B  1383               	bcf	3,7	;select IRP bank0
  1117  077C  0800               	movf	0,w
  1118  077D  00F2               	movwf	extGPIOA@a
  1119  077E  0A84               	incf	4,f
  1120  077F  0800               	movf	0,w
  1121  0780  00F3               	movwf	extGPIOA@a+1
  1122  0781  120A  118A  2459  120A  118A  	fcall	_extGPIOA
  1123                           
  1124                           ;main.c: 87: _delay((unsigned long)((10)*(20000000/4000.0)));
  1125  0786  3041               	movlw	65
  1126  0787  1283               	bcf	3,5	;RP0=0, select bank0
  1127  0788  1303               	bcf	3,6	;RP1=0, select bank0
  1128  0789  00AC               	movwf	??_main+1
  1129  078A  30ED               	movlw	237
  1130  078B  00AB               	movwf	??_main
  1131  078C                     u827:	
  1132  078C  0BAB               	decfsz	??_main,f
  1133  078D  2F8C               	goto	u827
  1134  078E  0BAC               	decfsz	??_main+1,f
  1135  078F  2F8C               	goto	u827
  1136  0790  2F91               	nop2
  1137  0791  3001               	movlw	1
  1138  0792  1283               	bcf	3,5	;RP0=0, select bank0
  1139  0793  1303               	bcf	3,6	;RP1=0, select bank0
  1140  0794  07BF               	addwf	main@i,f
  1141  0795  1803               	skipnc
  1142  0796  0AC0               	incf	main@i+1,f
  1143  0797  3000               	movlw	0
  1144  0798  07C0               	addwf	main@i+1,f
  1145  0799  0840               	movf	main@i+1,w
  1146  079A  3A80               	xorlw	128
  1147  079B  00FF               	movwf	127
  1148  079C  3080               	movlw	128
  1149  079D  027F               	subwf	127,w
  1150  079E  1D03               	skipz
  1151  079F  2FA2               	goto	u775
  1152  07A0  3008               	movlw	8
  1153  07A1  023F               	subwf	main@i,w
  1154  07A2                     u775:	
  1155  07A2  1C03               	skipc
  1156  07A3  2F74               	goto	l1230
  1157  07A4                     l1238:	
  1158                           
  1159                           ;main.c: 88: }
  1160                           ;main.c: 89: for(int i = 7; i >= 0; i--)
  1161  07A4  3007               	movlw	7
  1162  07A5  1283               	bcf	3,5	;RP0=0, select bank0
  1163  07A6  1303               	bcf	3,6	;RP1=0, select bank0
  1164  07A7  00C1               	movwf	main@i_87
  1165  07A8  3000               	movlw	0
  1166  07A9  00C2               	movwf	main@i_87+1
  1167  07AA  1BC2               	btfsc	main@i_87+1,7
  1168  07AB  2FD1               	goto	l1252
  1169  07AC                     l1244:	
  1170                           
  1171                           ;main.c: 90: {
  1172                           ;main.c: 91: extGPIOA(Array[i]);
  1173  07AC  0841               	movf	main@i_87,w
  1174  07AD  00AB               	movwf	??_main
  1175  07AE  072B               	addwf	??_main,w
  1176  07AF  3E2D               	addlw	(low (main@Array| 0))& (0+255)
  1177  07B0  0084               	movwf	4
  1178  07B1  1383               	bcf	3,7	;select IRP bank0
  1179  07B2  0800               	movf	0,w
  1180  07B3  00F2               	movwf	extGPIOA@a
  1181  07B4  0A84               	incf	4,f
  1182  07B5  0800               	movf	0,w
  1183  07B6  00F3               	movwf	extGPIOA@a+1
  1184  07B7  120A  118A  2459  120A  118A  	fcall	_extGPIOA
  1185                           
  1186                           ;main.c: 92: _delay((unsigned long)((10)*(20000000/4000.0)));
  1187  07BC  3041               	movlw	65
  1188  07BD  1283               	bcf	3,5	;RP0=0, select bank0
  1189  07BE  1303               	bcf	3,6	;RP1=0, select bank0
  1190  07BF  00AC               	movwf	??_main+1
  1191  07C0  30ED               	movlw	237
  1192  07C1  00AB               	movwf	??_main
  1193  07C2                     u837:	
  1194  07C2  0BAB               	decfsz	??_main,f
  1195  07C3  2FC2               	goto	u837
  1196  07C4  0BAC               	decfsz	??_main+1,f
  1197  07C5  2FC2               	goto	u837
  1198  07C6  2FC7               	nop2
  1199  07C7  30FF               	movlw	255
  1200  07C8  1283               	bcf	3,5	;RP0=0, select bank0
  1201  07C9  1303               	bcf	3,6	;RP1=0, select bank0
  1202  07CA  07C1               	addwf	main@i_87,f
  1203  07CB  1803               	skipnc
  1204  07CC  0AC2               	incf	main@i_87+1,f
  1205  07CD  30FF               	movlw	255
  1206  07CE  07C2               	addwf	main@i_87+1,f
  1207  07CF  1FC2               	btfss	main@i_87+1,7
  1208  07D0  2FAC               	goto	l1244
  1209  07D1                     l1252:	
  1210                           
  1211                           ;main.c: 93: }
  1212                           ;main.c: 95: lcd_goto(0x0);
  1213  07D1  3000               	movlw	0
  1214  07D2  120A  118A  242B  120A  118A  	fcall	_lcd_goto
  1215                           
  1216                           ;main.c: 96: lcd_putstr("add:");
  1217  07D7  3001               	movlw	(low ((STR_1-__stringbase)| (0+32768)))& (0+255)
  1218  07D8  120A  118A  254B  120A  118A  	fcall	_lcd_putstr
  1219                           
  1220                           ;main.c: 97: lcd_goto(0x04);
  1221  07DD  3004               	movlw	4
  1222  07DE  120A  118A  242B  120A  118A  	fcall	_lcd_goto
  1223                           
  1224                           ;main.c: 98: lcd_bcd(5, add);
  1225  07E3  1283               	bcf	3,5	;RP0=0, select bank0
  1226  07E4  1303               	bcf	3,6	;RP1=0, select bank0
  1227  07E5  083E               	movf	main@add+1,w
  1228  07E6  00F9               	movwf	lcd_bcd@ui_number+1
  1229  07E7  083D               	movf	main@add,w
  1230  07E8  00F8               	movwf	lcd_bcd@ui_number
  1231  07E9  3005               	movlw	5
  1232  07EA  120A  118A  261B  120A  118A  	fcall	_lcd_bcd
  1233  07EF  2F5F               	goto	l1222
  1234  07F0                     __end_of_main:	
  1235                           
  1236                           	psect	text1
  1237  054B                     __ptext1:	
  1238 ;; *************** function _lcd_putstr *****************
  1239 ;; Defined at:
  1240 ;;		line 241 in file "lcd.c"
  1241 ;; Parameters:    Size  Location     Type
  1242 ;;  csz_string      1    wreg     PTR const unsigned char 
  1243 ;;		 -> STR_1(5), 
  1244 ;; Auto vars:     Size  Location     Type
  1245 ;;  csz_string      1    8[COMMON] PTR const unsigned char 
  1246 ;;		 -> STR_1(5), 
  1247 ;; Return value:  Size  Location     Type
  1248 ;;                  1    wreg      void 
  1249 ;; Registers used:
  1250 ;;		wreg, fsr0l, fsr0h, status,2, status,0, pclath, cstack
  1251 ;; Tracked objects:
  1252 ;;		On entry : 0/0
  1253 ;;		On exit  : 0/0
  1254 ;;		Unchanged: 0/0
  1255 ;; Data sizes:     COMMON   BANK0   BANK1   BANK3   BANK2
  1256 ;;      Params:         0       0       0       0       0
  1257 ;;      Locals:         1       0       0       0       0
  1258 ;;      Temps:          1       0       0       0       0
  1259 ;;      Totals:         2       0       0       0       0
  1260 ;;Total ram usage:        2 bytes
  1261 ;; Hardware stack levels used:    1
  1262 ;; Hardware stack levels required when called:    3
  1263 ;; This function calls:
  1264 ;;		_lcd_2ndline
  1265 ;;		_lcd_putchar
  1266 ;; This function is called by:
  1267 ;;		_main
  1268 ;; This function uses a non-reentrant model
  1269 ;;
  1270                           
  1271                           
  1272                           ;psect for function _lcd_putstr
  1273  054B                     _lcd_putstr:	
  1274                           
  1275                           ;incstack = 0
  1276                           ; Regs used in _lcd_putstr: [wreg-fsr0h+status,2+status,0+pclath+cstack]
  1277                           ;lcd_putstr@csz_string stored from wreg
  1278  054B  00F8               	movwf	lcd_putstr@csz_string
  1279  054C                     l1140:	
  1280                           ;lcd.c: 244: while (*csz_string != '\0') {
  1281                           
  1282  054C  0878               	movf	lcd_putstr@csz_string,w
  1283  054D  0084               	movwf	4
  1284  054E  120A  118A  2003  120A  118A  	fcall	stringdir
  1285  0553  3A00               	xorlw	0
  1286  0554  1903               	btfsc	3,2
  1287  0555  0008               	return
  1288                           
  1289                           ;lcd.c: 247: if (*csz_string == '\n' || *csz_string == '\r') {
  1290  0556  0878               	movf	lcd_putstr@csz_string,w
  1291  0557  0084               	movwf	4
  1292  0558  120A  118A  2003  120A  118A  	fcall	stringdir
  1293  055D  3A0A               	xorlw	10
  1294  055E  1903               	skipnz
  1295  055F  2D6A               	goto	l1134
  1296  0560  0878               	movf	lcd_putstr@csz_string,w
  1297  0561  0084               	movwf	4
  1298  0562  120A  118A  2003  120A  118A  	fcall	stringdir
  1299  0567  3A0D               	xorlw	13
  1300  0568  1D03               	skipz
  1301  0569  2D70               	goto	l1136
  1302  056A                     l1134:	
  1303                           
  1304                           ;lcd.c: 248: lcd_2ndline();
  1305  056A  120A  118A  2402  120A  118A  	fcall	_lcd_2ndline
  1306                           
  1307                           ;lcd.c: 249: }
  1308  056F  2D7C               	goto	l1138
  1309  0570                     l1136:	
  1310                           
  1311                           ;lcd.c: 252: else {
  1312                           ;lcd.c: 253: lcd_putchar(*csz_string);
  1313  0570  0878               	movf	lcd_putstr@csz_string,w
  1314  0571  0084               	movwf	4
  1315  0572  120A  118A  2003  120A  118A  	fcall	stringdir
  1316  0577  120A  118A  240B  120A  118A  	fcall	_lcd_putchar
  1317  057C                     l1138:	
  1318                           
  1319                           ;lcd.c: 254: }
  1320                           ;lcd.c: 257: csz_string++;
  1321  057C  3001               	movlw	1
  1322  057D  00F7               	movwf	??_lcd_putstr
  1323  057E  0877               	movf	??_lcd_putstr,w
  1324  057F  07F8               	addwf	lcd_putstr@csz_string,f
  1325  0580  2D4C               	goto	l1140
  1326  0581                     __end_of_lcd_putstr:	
  1327                           
  1328                           	psect	text2
  1329  0402                     __ptext2:	
  1330 ;; *************** function _lcd_2ndline *****************
  1331 ;; Defined at:
  1332 ;;		line 178 in file "lcd.c"
  1333 ;; Parameters:    Size  Location     Type
  1334 ;;		None
  1335 ;; Auto vars:     Size  Location     Type
  1336 ;;		None
  1337 ;; Return value:  Size  Location     Type
  1338 ;;                  1    wreg      void 
  1339 ;; Registers used:
  1340 ;;		wreg, status,2, status,0, pclath, cstack
  1341 ;; Tracked objects:
  1342 ;;		On entry : 0/0
  1343 ;;		On exit  : 0/0
  1344 ;;		Unchanged: 0/0
  1345 ;; Data sizes:     COMMON   BANK0   BANK1   BANK3   BANK2
  1346 ;;      Params:         0       0       0       0       0
  1347 ;;      Locals:         0       0       0       0       0
  1348 ;;      Temps:          1       0       0       0       0
  1349 ;;      Totals:         1       0       0       0       0
  1350 ;;Total ram usage:        1 bytes
  1351 ;; Hardware stack levels used:    1
  1352 ;; Hardware stack levels required when called:    2
  1353 ;; This function calls:
  1354 ;;		_send_lcd_data
  1355 ;; This function is called by:
  1356 ;;		_lcd_putstr
  1357 ;; This function uses a non-reentrant model
  1358 ;;
  1359                           
  1360                           
  1361                           ;psect for function _lcd_2ndline
  1362  0402                     _lcd_2ndline:	
  1363                           
  1364                           ;lcd.c: 181: send_lcd_data(0, 0b10000000 | 0x40);
  1365                           
  1366                           ;incstack = 0
  1367                           ; Regs used in _lcd_2ndline: [wreg+status,2+status,0+pclath+cstack]
  1368  0402  30C0               	movlw	192
  1369  0403  00F5               	movwf	??_lcd_2ndline
  1370  0404  0875               	movf	??_lcd_2ndline,w
  1371  0405  00F1               	movwf	send_lcd_data@uc_data
  1372  0406  3000               	movlw	0
  1373  0407  120A  118A  24E0   	fcall	_send_lcd_data
  1374  040A  0008               	return
  1375  040B                     __end_of_lcd_2ndline:	
  1376                           
  1377                           	psect	text3
  1378  047D                     __ptext3:	
  1379 ;; *************** function _lcd_initialize *****************
  1380 ;; Defined at:
  1381 ;;		line 100 in file "lcd.c"
  1382 ;; Parameters:    Size  Location     Type
  1383 ;;		None
  1384 ;; Auto vars:     Size  Location     Type
  1385 ;;		None
  1386 ;; Return value:  Size  Location     Type
  1387 ;;                  1    wreg      void 
  1388 ;; Registers used:
  1389 ;;		wreg, status,2, status,0, pclath, cstack
  1390 ;; Tracked objects:
  1391 ;;		On entry : 0/0
  1392 ;;		On exit  : 0/0
  1393 ;;		Unchanged: 0/0
  1394 ;; Data sizes:     COMMON   BANK0   BANK1   BANK3   BANK2
  1395 ;;      Params:         0       0       0       0       0
  1396 ;;      Locals:         0       0       0       0       0
  1397 ;;      Temps:          2       0       0       0       0
  1398 ;;      Totals:         2       0       0       0       0
  1399 ;;Total ram usage:        2 bytes
  1400 ;; Hardware stack levels used:    1
  1401 ;; Hardware stack levels required when called:    3
  1402 ;; This function calls:
  1403 ;;		_lcd_clear
  1404 ;;		_send_lcd_data
  1405 ;;		_set_lcd_e
  1406 ;; This function is called by:
  1407 ;;		_main
  1408 ;; This function uses a non-reentrant model
  1409 ;;
  1410                           
  1411                           
  1412                           ;psect for function _lcd_initialize
  1413  047D                     _lcd_initialize:	
  1414                           
  1415                           ;lcd.c: 104: set_lcd_e(1);
  1416                           
  1417                           ;incstack = 0
  1418                           ; Regs used in _lcd_initialize: [wreg+status,2+status,0+pclath+cstack]
  1419  047D  3001               	movlw	1
  1420  047E  120A  118A  2415  120A  118A  	fcall	_set_lcd_e
  1421                           
  1422                           ;lcd.c: 105: _delay((unsigned long)((15)*(20000000/4000.0)));
  1423  0483  3062               	movlw	98
  1424  0484  00F6               	movwf	??_lcd_initialize+1
  1425  0485  3065               	movlw	101
  1426  0486  00F5               	movwf	??_lcd_initialize
  1427  0487                     u847:	
  1428  0487  0BF5               	decfsz	??_lcd_initialize,f
  1429  0488  2C87               	goto	u847
  1430  0489  0BF6               	decfsz	??_lcd_initialize+1,f
  1431  048A  2C87               	goto	u847
  1432  048B  2C8C               	nop2
  1433                           
  1434                           ;lcd.c: 108: send_lcd_data(0, 0b00100000 | 0b00010000 | 0b00001000 | 0b00000000);
  1435  048C  3038               	movlw	56
  1436  048D  00F5               	movwf	??_lcd_initialize
  1437  048E  0875               	movf	??_lcd_initialize,w
  1438  048F  00F1               	movwf	send_lcd_data@uc_data
  1439  0490  3000               	movlw	0
  1440  0491  120A  118A  24E0  120A  118A  	fcall	_send_lcd_data
  1441                           
  1442                           ;lcd.c: 112: send_lcd_data(0, 0b00000100 | 0b00000010 | 0b00000000);
  1443  0496  3006               	movlw	6
  1444  0497  00F5               	movwf	??_lcd_initialize
  1445  0498  0875               	movf	??_lcd_initialize,w
  1446  0499  00F1               	movwf	send_lcd_data@uc_data
  1447  049A  3000               	movlw	0
  1448  049B  120A  118A  24E0  120A  118A  	fcall	_send_lcd_data
  1449                           
  1450                           ;lcd.c: 115: send_lcd_data(0, 0b00001000 | 0b00000100 | 0b00000000 | 0b00000000);
  1451  04A0  300C               	movlw	12
  1452  04A1  00F5               	movwf	??_lcd_initialize
  1453  04A2  0875               	movf	??_lcd_initialize,w
  1454  04A3  00F1               	movwf	send_lcd_data@uc_data
  1455  04A4  3000               	movlw	0
  1456  04A5  120A  118A  24E0  120A  118A  	fcall	_send_lcd_data
  1457                           
  1458                           ;lcd.c: 118: lcd_clear();
  1459  04AA  120A  118A  23EA   	fcall	_lcd_clear
  1460  04AD  0008               	return
  1461  04AE                     __end_of_lcd_initialize:	
  1462                           
  1463                           	psect	text4
  1464  03EA                     __ptext4:	
  1465 ;; *************** function _lcd_clear *****************
  1466 ;; Defined at:
  1467 ;;		line 136 in file "lcd.c"
  1468 ;; Parameters:    Size  Location     Type
  1469 ;;		None
  1470 ;; Auto vars:     Size  Location     Type
  1471 ;;		None
  1472 ;; Return value:  Size  Location     Type
  1473 ;;                  1    wreg      void 
  1474 ;; Registers used:
  1475 ;;		wreg, status,2, status,0, pclath, cstack
  1476 ;; Tracked objects:
  1477 ;;		On entry : 0/0
  1478 ;;		On exit  : 0/0
  1479 ;;		Unchanged: 0/0
  1480 ;; Data sizes:     COMMON   BANK0   BANK1   BANK3   BANK2
  1481 ;;      Params:         0       0       0       0       0
  1482 ;;      Locals:         0       0       0       0       0
  1483 ;;      Temps:          0       0       0       0       0
  1484 ;;      Totals:         0       0       0       0       0
  1485 ;;Total ram usage:        0 bytes
  1486 ;; Hardware stack levels used:    1
  1487 ;; Hardware stack levels required when called:    2
  1488 ;; This function calls:
  1489 ;;		_send_lcd_data
  1490 ;; This function is called by:
  1491 ;;		_lcd_initialize
  1492 ;; This function uses a non-reentrant model
  1493 ;;
  1494                           
  1495                           
  1496                           ;psect for function _lcd_clear
  1497  03EA                     _lcd_clear:	
  1498                           
  1499                           ;lcd.c: 139: send_lcd_data(0, 0b00000001);
  1500                           
  1501                           ;incstack = 0
  1502                           ; Regs used in _lcd_clear: [wreg+status,2+status,0+pclath+cstack]
  1503  03EA  01F1               	clrf	send_lcd_data@uc_data
  1504  03EB  0AF1               	incf	send_lcd_data@uc_data,f
  1505  03EC  3000               	movlw	0
  1506  03ED  120A  118A  24E0   	fcall	_send_lcd_data
  1507  03F0  0008               	return
  1508  03F1                     __end_of_lcd_clear:	
  1509                           
  1510                           	psect	text5
  1511  042B                     __ptext5:	
  1512 ;; *************** function _lcd_goto *****************
  1513 ;; Defined at:
  1514 ;;		line 199 in file "lcd.c"
  1515 ;; Parameters:    Size  Location     Type
  1516 ;;  uc_position     1    wreg     unsigned char 
  1517 ;; Auto vars:     Size  Location     Type
  1518 ;;  uc_position     1    6[COMMON] unsigned char 
  1519 ;; Return value:  Size  Location     Type
  1520 ;;                  1    wreg      void 
  1521 ;; Registers used:
  1522 ;;		wreg, status,2, status,0, pclath, cstack
  1523 ;; Tracked objects:
  1524 ;;		On entry : 0/0
  1525 ;;		On exit  : 0/0
  1526 ;;		Unchanged: 0/0
  1527 ;; Data sizes:     COMMON   BANK0   BANK1   BANK3   BANK2
  1528 ;;      Params:         0       0       0       0       0
  1529 ;;      Locals:         1       0       0       0       0
  1530 ;;      Temps:          1       0       0       0       0
  1531 ;;      Totals:         2       0       0       0       0
  1532 ;;Total ram usage:        2 bytes
  1533 ;; Hardware stack levels used:    1
  1534 ;; Hardware stack levels required when called:    2
  1535 ;; This function calls:
  1536 ;;		_send_lcd_data
  1537 ;; This function is called by:
  1538 ;;		_main
  1539 ;; This function uses a non-reentrant model
  1540 ;;
  1541                           
  1542                           
  1543                           ;psect for function _lcd_goto
  1544  042B                     _lcd_goto:	
  1545                           
  1546                           ;incstack = 0
  1547                           ; Regs used in _lcd_goto: [wreg+status,2+status,0+pclath+cstack]
  1548                           ;lcd_goto@uc_position stored from wreg
  1549  042B  00F6               	movwf	lcd_goto@uc_position
  1550                           
  1551                           ;lcd.c: 202: send_lcd_data(0, 0b10000000 | uc_position);
  1552  042C  0876               	movf	lcd_goto@uc_position,w
  1553  042D  3880               	iorlw	128
  1554  042E  00F5               	movwf	??_lcd_goto
  1555  042F  0875               	movf	??_lcd_goto,w
  1556  0430  00F1               	movwf	send_lcd_data@uc_data
  1557  0431  3000               	movlw	0
  1558  0432  120A  118A  24E0   	fcall	_send_lcd_data
  1559  0435  0008               	return
  1560  0436                     __end_of_lcd_goto:	
  1561                           
  1562                           	psect	text6
  1563  061B                     __ptext6:	
  1564 ;; *************** function _lcd_bcd *****************
  1565 ;; Defined at:
  1566 ;;		line 274 in file "lcd.c"
  1567 ;; Parameters:    Size  Location     Type
  1568 ;;  uc_digit        1    wreg     unsigned char 
  1569 ;;  ui_number       2    8[COMMON] unsigned int 
  1570 ;; Auto vars:     Size  Location     Type
  1571 ;;  uc_digit        1   10[BANK0 ] unsigned char 
  1572 ;;  ui_decimal     10    0[BANK0 ] unsigned int [5]
  1573 ;; Return value:  Size  Location     Type
  1574 ;;                  1    wreg      void 
  1575 ;; Registers used:
  1576 ;;		wreg, fsr0l, fsr0h, status,2, status,0, pclath, cstack
  1577 ;; Tracked objects:
  1578 ;;		On entry : 0/0
  1579 ;;		On exit  : 0/0
  1580 ;;		Unchanged: 0/0
  1581 ;; Data sizes:     COMMON   BANK0   BANK1   BANK3   BANK2
  1582 ;;      Params:         2       0       0       0       0
  1583 ;;      Locals:         0      11       0       0       0
  1584 ;;      Temps:          4       0       0       0       0
  1585 ;;      Totals:         6      11       0       0       0
  1586 ;;Total ram usage:       17 bytes
  1587 ;; Hardware stack levels used:    1
  1588 ;; Hardware stack levels required when called:    3
  1589 ;; This function calls:
  1590 ;;		___lwdiv
  1591 ;;		___lwmod
  1592 ;;		_lcd_putchar
  1593 ;; This function is called by:
  1594 ;;		_main
  1595 ;; This function uses a non-reentrant model
  1596 ;;
  1597                           
  1598                           
  1599                           ;psect for function _lcd_bcd
  1600  061B                     _lcd_bcd:	
  1601                           
  1602                           ;incstack = 0
  1603                           ; Regs used in _lcd_bcd: [wreg-fsr0h+status,2+status,0+pclath+cstack]
  1604                           ;lcd_bcd@uc_digit stored from wreg
  1605  061B  1283               	bcf	3,5	;RP0=0, select bank0
  1606  061C  1303               	bcf	3,6	;RP1=0, select bank0
  1607  061D  00AA               	movwf	lcd_bcd@uc_digit
  1608                           
  1609                           ;lcd.c: 276: unsigned int ui_decimal[5] ={ 0 };
  1610  061E  3020               	movlw	lcd_bcd@ui_decimal& (0+255)
  1611  061F  0084               	movwf	4
  1612  0620  3043               	movlw	low lcd_bcd@F1134
  1613  0621  00FA               	movwf	??_lcd_bcd
  1614  0622  0804               	movf	4,w
  1615  0623  00FB               	movwf	??_lcd_bcd+1
  1616  0624  300A               	movlw	10
  1617  0625  00FC               	movwf	??_lcd_bcd+2
  1618  0626                     u720:	
  1619  0626  087A               	movf	??_lcd_bcd,w
  1620  0627  0084               	movwf	4
  1621  0628  1383               	bcf	3,7	;select IRP bank0
  1622  0629  0800               	movf	0,w
  1623  062A  00FD               	movwf	??_lcd_bcd+3
  1624  062B  0AFA               	incf	??_lcd_bcd,f
  1625  062C  087B               	movf	??_lcd_bcd+1,w
  1626  062D  0084               	movwf	4
  1627  062E  087D               	movf	??_lcd_bcd+3,w
  1628  062F  0080               	movwf	0
  1629  0630  0AFB               	incf	??_lcd_bcd+1,f
  1630  0631  0BFC               	decfsz	??_lcd_bcd+2,f
  1631  0632  2E26               	goto	u720
  1632                           
  1633                           ;lcd.c: 278: ui_decimal[4] = ui_number/10000;
  1634  0633  3010               	movlw	16
  1635  0634  00F0               	movwf	___lwdiv@divisor
  1636  0635  3027               	movlw	39
  1637  0636  00F1               	movwf	___lwdiv@divisor+1
  1638  0637  0879               	movf	lcd_bcd@ui_number+1,w
  1639  0638  00F3               	movwf	___lwdiv@dividend+1
  1640  0639  0878               	movf	lcd_bcd@ui_number,w
  1641  063A  00F2               	movwf	___lwdiv@dividend
  1642  063B  120A  118A  2581  120A  118A  	fcall	___lwdiv
  1643  0640  0871               	movf	?___lwdiv+1,w
  1644  0641  1283               	bcf	3,5	;RP0=0, select bank0
  1645  0642  1303               	bcf	3,6	;RP1=0, select bank0
  1646  0643  00A9               	movwf	lcd_bcd@ui_decimal+9
  1647  0644  0870               	movf	?___lwdiv,w
  1648  0645  00A8               	movwf	lcd_bcd@ui_decimal+8
  1649                           
  1650                           ;lcd.c: 279: ui_decimal[3] = ui_number%10000;
  1651  0646  3010               	movlw	16
  1652  0647  00F0               	movwf	___lwmod@divisor
  1653  0648  3027               	movlw	39
  1654  0649  00F1               	movwf	___lwmod@divisor+1
  1655  064A  0879               	movf	lcd_bcd@ui_number+1,w
  1656  064B  00F3               	movwf	___lwmod@dividend+1
  1657  064C  0878               	movf	lcd_bcd@ui_number,w
  1658  064D  00F2               	movwf	___lwmod@dividend
  1659  064E  120A  118A  24AE  120A  118A  	fcall	___lwmod
  1660  0653  0871               	movf	?___lwmod+1,w
  1661  0654  1283               	bcf	3,5	;RP0=0, select bank0
  1662  0655  1303               	bcf	3,6	;RP1=0, select bank0
  1663  0656  00A7               	movwf	lcd_bcd@ui_decimal+7
  1664  0657  0870               	movf	?___lwmod,w
  1665  0658  00A6               	movwf	lcd_bcd@ui_decimal+6
  1666                           
  1667                           ;lcd.c: 280: ui_decimal[2] = ui_decimal[3]%1000;
  1668  0659  30E8               	movlw	232
  1669  065A  00F0               	movwf	___lwmod@divisor
  1670  065B  3003               	movlw	3
  1671  065C  00F1               	movwf	___lwmod@divisor+1
  1672  065D  0827               	movf	lcd_bcd@ui_decimal+7,w
  1673  065E  00F3               	movwf	___lwmod@dividend+1
  1674  065F  0826               	movf	lcd_bcd@ui_decimal+6,w
  1675  0660  00F2               	movwf	___lwmod@dividend
  1676  0661  120A  118A  24AE  120A  118A  	fcall	___lwmod
  1677  0666  0871               	movf	?___lwmod+1,w
  1678  0667  1283               	bcf	3,5	;RP0=0, select bank0
  1679  0668  1303               	bcf	3,6	;RP1=0, select bank0
  1680  0669  00A5               	movwf	lcd_bcd@ui_decimal+5
  1681  066A  0870               	movf	?___lwmod,w
  1682  066B  00A4               	movwf	lcd_bcd@ui_decimal+4
  1683                           
  1684                           ;lcd.c: 281: ui_decimal[3] = ui_decimal[3]/1000;
  1685  066C  30E8               	movlw	232
  1686  066D  00F0               	movwf	___lwdiv@divisor
  1687  066E  3003               	movlw	3
  1688  066F  00F1               	movwf	___lwdiv@divisor+1
  1689  0670  0827               	movf	lcd_bcd@ui_decimal+7,w
  1690  0671  00F3               	movwf	___lwdiv@dividend+1
  1691  0672  0826               	movf	lcd_bcd@ui_decimal+6,w
  1692  0673  00F2               	movwf	___lwdiv@dividend
  1693  0674  120A  118A  2581  120A  118A  	fcall	___lwdiv
  1694  0679  0871               	movf	?___lwdiv+1,w
  1695  067A  1283               	bcf	3,5	;RP0=0, select bank0
  1696  067B  1303               	bcf	3,6	;RP1=0, select bank0
  1697  067C  00A7               	movwf	lcd_bcd@ui_decimal+7
  1698  067D  0870               	movf	?___lwdiv,w
  1699  067E  00A6               	movwf	lcd_bcd@ui_decimal+6
  1700                           
  1701                           ;lcd.c: 282: ui_decimal[1] = ui_decimal[2]%100;
  1702  067F  3064               	movlw	100
  1703  0680  00F0               	movwf	___lwmod@divisor
  1704  0681  3000               	movlw	0
  1705  0682  00F1               	movwf	___lwmod@divisor+1
  1706  0683  0825               	movf	lcd_bcd@ui_decimal+5,w
  1707  0684  00F3               	movwf	___lwmod@dividend+1
  1708  0685  0824               	movf	lcd_bcd@ui_decimal+4,w
  1709  0686  00F2               	movwf	___lwmod@dividend
  1710  0687  120A  118A  24AE  120A  118A  	fcall	___lwmod
  1711  068C  0871               	movf	?___lwmod+1,w
  1712  068D  1283               	bcf	3,5	;RP0=0, select bank0
  1713  068E  1303               	bcf	3,6	;RP1=0, select bank0
  1714  068F  00A3               	movwf	lcd_bcd@ui_decimal+3
  1715  0690  0870               	movf	?___lwmod,w
  1716  0691  00A2               	movwf	lcd_bcd@ui_decimal+2
  1717                           
  1718                           ;lcd.c: 283: ui_decimal[2] = ui_decimal[2]/100;
  1719  0692  3064               	movlw	100
  1720  0693  00F0               	movwf	___lwdiv@divisor
  1721  0694  3000               	movlw	0
  1722  0695  00F1               	movwf	___lwdiv@divisor+1
  1723  0696  0825               	movf	lcd_bcd@ui_decimal+5,w
  1724  0697  00F3               	movwf	___lwdiv@dividend+1
  1725  0698  0824               	movf	lcd_bcd@ui_decimal+4,w
  1726  0699  00F2               	movwf	___lwdiv@dividend
  1727  069A  120A  118A  2581  120A  118A  	fcall	___lwdiv
  1728  069F  0871               	movf	?___lwdiv+1,w
  1729  06A0  1283               	bcf	3,5	;RP0=0, select bank0
  1730  06A1  1303               	bcf	3,6	;RP1=0, select bank0
  1731  06A2  00A5               	movwf	lcd_bcd@ui_decimal+5
  1732  06A3  0870               	movf	?___lwdiv,w
  1733  06A4  00A4               	movwf	lcd_bcd@ui_decimal+4
  1734                           
  1735                           ;lcd.c: 284: ui_decimal[0] = ui_decimal[1]%10;
  1736  06A5  300A               	movlw	10
  1737  06A6  00F0               	movwf	___lwmod@divisor
  1738  06A7  3000               	movlw	0
  1739  06A8  00F1               	movwf	___lwmod@divisor+1
  1740  06A9  0823               	movf	lcd_bcd@ui_decimal+3,w
  1741  06AA  00F3               	movwf	___lwmod@dividend+1
  1742  06AB  0822               	movf	lcd_bcd@ui_decimal+2,w
  1743  06AC  00F2               	movwf	___lwmod@dividend
  1744  06AD  120A  118A  24AE  120A  118A  	fcall	___lwmod
  1745  06B2  0871               	movf	?___lwmod+1,w
  1746  06B3  1283               	bcf	3,5	;RP0=0, select bank0
  1747  06B4  1303               	bcf	3,6	;RP1=0, select bank0
  1748  06B5  00A1               	movwf	lcd_bcd@ui_decimal+1
  1749  06B6  0870               	movf	?___lwmod,w
  1750  06B7  00A0               	movwf	lcd_bcd@ui_decimal
  1751                           
  1752                           ;lcd.c: 285: ui_decimal[1] = ui_decimal[1]/10;
  1753  06B8  300A               	movlw	10
  1754  06B9  00F0               	movwf	___lwdiv@divisor
  1755  06BA  3000               	movlw	0
  1756  06BB  00F1               	movwf	___lwdiv@divisor+1
  1757  06BC  0823               	movf	lcd_bcd@ui_decimal+3,w
  1758  06BD  00F3               	movwf	___lwdiv@dividend+1
  1759  06BE  0822               	movf	lcd_bcd@ui_decimal+2,w
  1760  06BF  00F2               	movwf	___lwdiv@dividend
  1761  06C0  120A  118A  2581  120A  118A  	fcall	___lwdiv
  1762  06C5  0871               	movf	?___lwdiv+1,w
  1763  06C6  1283               	bcf	3,5	;RP0=0, select bank0
  1764  06C7  1303               	bcf	3,6	;RP1=0, select bank0
  1765  06C8  00A3               	movwf	lcd_bcd@ui_decimal+3
  1766  06C9  0870               	movf	?___lwdiv,w
  1767  06CA  00A2               	movwf	lcd_bcd@ui_decimal+2
  1768                           
  1769                           ;lcd.c: 287: if (uc_digit > 5) uc_digit = 5;
  1770  06CB  3006               	movlw	6
  1771  06CC  022A               	subwf	lcd_bcd@uc_digit,w
  1772  06CD  1C03               	skipc
  1773  06CE  2ED3               	goto	l1164
  1774  06CF  3005               	movlw	5
  1775  06D0  00FA               	movwf	??_lcd_bcd
  1776  06D1  087A               	movf	??_lcd_bcd,w
  1777  06D2  00AA               	movwf	lcd_bcd@uc_digit
  1778  06D3                     l1164:	
  1779                           
  1780                           ;lcd.c: 288: for( ; uc_digit > 0; uc_digit--)
  1781  06D3  082A               	movf	lcd_bcd@uc_digit,w
  1782  06D4  1903               	btfsc	3,2
  1783  06D5  0008               	return
  1784                           
  1785                           ;lcd.c: 289: {
  1786                           ;lcd.c: 290: lcd_putchar(ui_decimal[uc_digit - 1] + 0x30);
  1787  06D6  082A               	movf	lcd_bcd@uc_digit,w
  1788  06D7  00FA               	movwf	??_lcd_bcd
  1789  06D8  077A               	addwf	??_lcd_bcd,w
  1790  06D9  3EFE               	addlw	254
  1791  06DA  3E20               	addlw	(low (lcd_bcd@ui_decimal| 0))& (0+255)
  1792  06DB  0084               	movwf	4
  1793  06DC  1383               	bcf	3,7	;select IRP bank0
  1794  06DD  0800               	movf	0,w
  1795  06DE  3E30               	addlw	48
  1796  06DF  120A  118A  240B  120A  118A  	fcall	_lcd_putchar
  1797  06E4  3001               	movlw	1
  1798  06E5  1283               	bcf	3,5	;RP0=0, select bank0
  1799  06E6  1303               	bcf	3,6	;RP1=0, select bank0
  1800  06E7  02AA               	subwf	lcd_bcd@uc_digit,f
  1801  06E8  2ED3               	goto	l1164
  1802  06E9                     __end_of_lcd_bcd:	
  1803                           
  1804                           	psect	text7
  1805  040B                     __ptext7:	
  1806 ;; *************** function _lcd_putchar *****************
  1807 ;; Defined at:
  1808 ;;		line 220 in file "lcd.c"
  1809 ;; Parameters:    Size  Location     Type
  1810 ;;  c_data          1    wreg     unsigned char 
  1811 ;; Auto vars:     Size  Location     Type
  1812 ;;  c_data          1    6[COMMON] unsigned char 
  1813 ;; Return value:  Size  Location     Type
  1814 ;;                  1    wreg      void 
  1815 ;; Registers used:
  1816 ;;		wreg, status,2, status,0, pclath, cstack
  1817 ;; Tracked objects:
  1818 ;;		On entry : 0/0
  1819 ;;		On exit  : 0/0
  1820 ;;		Unchanged: 0/0
  1821 ;; Data sizes:     COMMON   BANK0   BANK1   BANK3   BANK2
  1822 ;;      Params:         0       0       0       0       0
  1823 ;;      Locals:         1       0       0       0       0
  1824 ;;      Temps:          1       0       0       0       0
  1825 ;;      Totals:         2       0       0       0       0
  1826 ;;Total ram usage:        2 bytes
  1827 ;; Hardware stack levels used:    1
  1828 ;; Hardware stack levels required when called:    2
  1829 ;; This function calls:
  1830 ;;		_send_lcd_data
  1831 ;; This function is called by:
  1832 ;;		_lcd_putstr
  1833 ;;		_lcd_bcd
  1834 ;; This function uses a non-reentrant model
  1835 ;;
  1836                           
  1837                           
  1838                           ;psect for function _lcd_putchar
  1839  040B                     _lcd_putchar:	
  1840                           
  1841                           ;incstack = 0
  1842                           ; Regs used in _lcd_putchar: [wreg+status,2+status,0+pclath+cstack]
  1843                           ;lcd_putchar@c_data stored from wreg
  1844  040B  00F6               	movwf	lcd_putchar@c_data
  1845                           
  1846                           ;lcd.c: 223: send_lcd_data(1, (unsigned char)c_data);
  1847  040C  0876               	movf	lcd_putchar@c_data,w
  1848  040D  00F5               	movwf	??_lcd_putchar
  1849  040E  0875               	movf	??_lcd_putchar,w
  1850  040F  00F1               	movwf	send_lcd_data@uc_data
  1851  0410  3001               	movlw	1
  1852  0411  120A  118A  24E0   	fcall	_send_lcd_data
  1853  0414  0008               	return
  1854  0415                     __end_of_lcd_putchar:	
  1855                           
  1856                           	psect	text8
  1857  04E0                     __ptext8:	
  1858 ;; *************** function _send_lcd_data *****************
  1859 ;; Defined at:
  1860 ;;		line 308 in file "lcd.c"
  1861 ;; Parameters:    Size  Location     Type
  1862 ;;  b_rs            1    wreg     unsigned char 
  1863 ;;  uc_data         1    1[COMMON] unsigned char 
  1864 ;; Auto vars:     Size  Location     Type
  1865 ;;  b_rs            1    4[COMMON] unsigned char 
  1866 ;; Return value:  Size  Location     Type
  1867 ;;                  1    wreg      void 
  1868 ;; Registers used:
  1869 ;;		wreg, status,2, status,0, pclath, cstack
  1870 ;; Tracked objects:
  1871 ;;		On entry : 0/0
  1872 ;;		On exit  : 0/0
  1873 ;;		Unchanged: 0/0
  1874 ;; Data sizes:     COMMON   BANK0   BANK1   BANK3   BANK2
  1875 ;;      Params:         1       0       0       0       0
  1876 ;;      Locals:         1       0       0       0       0
  1877 ;;      Temps:          2       0       0       0       0
  1878 ;;      Totals:         4       0       0       0       0
  1879 ;;Total ram usage:        4 bytes
  1880 ;; Hardware stack levels used:    1
  1881 ;; Hardware stack levels required when called:    1
  1882 ;; This function calls:
  1883 ;;		_set_lcd_data
  1884 ;;		_set_lcd_e
  1885 ;;		_set_lcd_rs
  1886 ;; This function is called by:
  1887 ;;		_lcd_initialize
  1888 ;;		_lcd_clear
  1889 ;;		_lcd_2ndline
  1890 ;;		_lcd_goto
  1891 ;;		_lcd_putchar
  1892 ;;		_lcd_home
  1893 ;; This function uses a non-reentrant model
  1894 ;;
  1895                           
  1896                           
  1897                           ;psect for function _send_lcd_data
  1898  04E0                     _send_lcd_data:	
  1899                           
  1900                           ;incstack = 0
  1901                           ; Regs used in _send_lcd_data: [wreg+status,2+status,0+pclath+cstack]
  1902                           ;send_lcd_data@b_rs stored from wreg
  1903  04E0  00F4               	movwf	send_lcd_data@b_rs
  1904                           
  1905                           ;lcd.c: 311: set_lcd_rs(b_rs);
  1906  04E1  0874               	movf	send_lcd_data@b_rs,w
  1907  04E2  120A  118A  2420  120A  118A  	fcall	_set_lcd_rs
  1908                           
  1909                           ;lcd.c: 312: set_lcd_data(uc_data);
  1910  04E7  0871               	movf	send_lcd_data@uc_data,w
  1911  04E8  120A  118A  23D6  120A  118A  	fcall	_set_lcd_data
  1912                           
  1913                           ;lcd.c: 315: set_lcd_e(1);
  1914  04ED  3001               	movlw	1
  1915  04EE  120A  118A  2415  120A  118A  	fcall	_set_lcd_e
  1916                           
  1917                           ;lcd.c: 316: _delay((unsigned long)((1)*(20000000/4000.0)));
  1918  04F3  3007               	movlw	7
  1919  04F4  00F3               	movwf	??_send_lcd_data+1
  1920  04F5  307D               	movlw	125
  1921  04F6  00F2               	movwf	??_send_lcd_data
  1922  04F7                     u857:	
  1923  04F7  0BF2               	decfsz	??_send_lcd_data,f
  1924  04F8  2CF7               	goto	u857
  1925  04F9  0BF3               	decfsz	??_send_lcd_data+1,f
  1926  04FA  2CF7               	goto	u857
  1927                           
  1928                           ;lcd.c: 317: set_lcd_e(0);
  1929  04FB  3000               	movlw	0
  1930  04FC  120A  118A  2415  120A  118A  	fcall	_set_lcd_e
  1931                           
  1932                           ;lcd.c: 318: _delay((unsigned long)((2)*(20000000/4000.0)));
  1933  0501  300D               	movlw	13
  1934  0502  00F3               	movwf	??_send_lcd_data+1
  1935  0503  30FB               	movlw	251
  1936  0504  00F2               	movwf	??_send_lcd_data
  1937  0505                     u867:	
  1938  0505  0BF2               	decfsz	??_send_lcd_data,f
  1939  0506  2D05               	goto	u867
  1940  0507  0BF3               	decfsz	??_send_lcd_data+1,f
  1941  0508  2D05               	goto	u867
  1942  0509  2D0A               	nop2
  1943                           
  1944                           ;lcd.c: 321: set_lcd_rs(0);
  1945  050A  3000               	movlw	0
  1946  050B  120A  118A  2420  120A  118A  	fcall	_set_lcd_rs
  1947                           
  1948                           ;lcd.c: 322: set_lcd_data(0);
  1949  0510  3000               	movlw	0
  1950  0511  120A  118A  23D6   	fcall	_set_lcd_data
  1951  0514  0008               	return
  1952  0515                     __end_of_send_lcd_data:	
  1953                           
  1954                           	psect	text9
  1955  0420                     __ptext9:	
  1956 ;; *************** function _set_lcd_rs *****************
  1957 ;; Defined at:
  1958 ;;		line 360 in file "lcd.c"
  1959 ;; Parameters:    Size  Location     Type
  1960 ;;  b_output        1    wreg     unsigned char 
  1961 ;; Auto vars:     Size  Location     Type
  1962 ;;  b_output        1    0[COMMON] unsigned char 
  1963 ;; Return value:  Size  Location     Type
  1964 ;;                  1    wreg      void 
  1965 ;; Registers used:
  1966 ;;		wreg
  1967 ;; Tracked objects:
  1968 ;;		On entry : 0/0
  1969 ;;		On exit  : 0/0
  1970 ;;		Unchanged: 0/0
  1971 ;; Data sizes:     COMMON   BANK0   BANK1   BANK3   BANK2
  1972 ;;      Params:         0       0       0       0       0
  1973 ;;      Locals:         1       0       0       0       0
  1974 ;;      Temps:          0       0       0       0       0
  1975 ;;      Totals:         1       0       0       0       0
  1976 ;;Total ram usage:        1 bytes
  1977 ;; Hardware stack levels used:    1
  1978 ;; This function calls:
  1979 ;;		Nothing
  1980 ;; This function is called by:
  1981 ;;		_send_lcd_data
  1982 ;; This function uses a non-reentrant model
  1983 ;;
  1984                           
  1985                           
  1986                           ;psect for function _set_lcd_rs
  1987  0420                     _set_lcd_rs:	
  1988                           
  1989                           ;incstack = 0
  1990                           ; Regs used in _set_lcd_rs: [wreg]
  1991                           ;set_lcd_rs@b_output stored from wreg
  1992  0420  00F0               	movwf	set_lcd_rs@b_output
  1993                           
  1994                           ;lcd.c: 362: RB4 = b_output;
  1995  0421  1C70               	btfss	set_lcd_rs@b_output,0
  1996  0422  2C27               	goto	u440
  1997  0423  1283               	bcf	3,5	;RP0=0, select bank0
  1998  0424  1303               	bcf	3,6	;RP1=0, select bank0
  1999  0425  1606               	bsf	6,4	;volatile
  2000  0426  0008               	return
  2001  0427                     u440:	
  2002  0427  1283               	bcf	3,5	;RP0=0, select bank0
  2003  0428  1303               	bcf	3,6	;RP1=0, select bank0
  2004  0429  1206               	bcf	6,4	;volatile
  2005  042A  0008               	return
  2006  042B                     __end_of_set_lcd_rs:	
  2007                           
  2008                           	psect	text10
  2009  0415                     __ptext10:	
  2010 ;; *************** function _set_lcd_e *****************
  2011 ;; Defined at:
  2012 ;;		line 340 in file "lcd.c"
  2013 ;; Parameters:    Size  Location     Type
  2014 ;;  b_output        1    wreg     unsigned char 
  2015 ;; Auto vars:     Size  Location     Type
  2016 ;;  b_output        1    0[COMMON] unsigned char 
  2017 ;; Return value:  Size  Location     Type
  2018 ;;                  1    wreg      void 
  2019 ;; Registers used:
  2020 ;;		wreg
  2021 ;; Tracked objects:
  2022 ;;		On entry : 0/0
  2023 ;;		On exit  : 0/0
  2024 ;;		Unchanged: 0/0
  2025 ;; Data sizes:     COMMON   BANK0   BANK1   BANK3   BANK2
  2026 ;;      Params:         0       0       0       0       0
  2027 ;;      Locals:         1       0       0       0       0
  2028 ;;      Temps:          0       0       0       0       0
  2029 ;;      Totals:         1       0       0       0       0
  2030 ;;Total ram usage:        1 bytes
  2031 ;; Hardware stack levels used:    1
  2032 ;; This function calls:
  2033 ;;		Nothing
  2034 ;; This function is called by:
  2035 ;;		_lcd_initialize
  2036 ;;		_send_lcd_data
  2037 ;; This function uses a non-reentrant model
  2038 ;;
  2039                           
  2040                           
  2041                           ;psect for function _set_lcd_e
  2042  0415                     _set_lcd_e:	
  2043                           
  2044                           ;incstack = 0
  2045                           ; Regs used in _set_lcd_e: [wreg]
  2046                           ;set_lcd_e@b_output stored from wreg
  2047  0415  00F0               	movwf	set_lcd_e@b_output
  2048                           
  2049                           ;lcd.c: 342: RB5 = b_output;
  2050  0416  1C70               	btfss	set_lcd_e@b_output,0
  2051  0417  2C1C               	goto	u420
  2052  0418  1283               	bcf	3,5	;RP0=0, select bank0
  2053  0419  1303               	bcf	3,6	;RP1=0, select bank0
  2054  041A  1686               	bsf	6,5	;volatile
  2055  041B  0008               	return
  2056  041C                     u420:	
  2057  041C  1283               	bcf	3,5	;RP0=0, select bank0
  2058  041D  1303               	bcf	3,6	;RP1=0, select bank0
  2059  041E  1286               	bcf	6,5	;volatile
  2060  041F  0008               	return
  2061  0420                     __end_of_set_lcd_e:	
  2062                           
  2063                           	psect	text11
  2064  03D6                     __ptext11:	
  2065 ;; *************** function _set_lcd_data *****************
  2066 ;; Defined at:
  2067 ;;		line 380 in file "lcd.c"
  2068 ;; Parameters:    Size  Location     Type
  2069 ;;  uc_data         1    wreg     unsigned char 
  2070 ;; Auto vars:     Size  Location     Type
  2071 ;;  uc_data         1    0[COMMON] unsigned char 
  2072 ;; Return value:  Size  Location     Type
  2073 ;;                  1    wreg      void 
  2074 ;; Registers used:
  2075 ;;		wreg
  2076 ;; Tracked objects:
  2077 ;;		On entry : 0/0
  2078 ;;		On exit  : 0/0
  2079 ;;		Unchanged: 0/0
  2080 ;; Data sizes:     COMMON   BANK0   BANK1   BANK3   BANK2
  2081 ;;      Params:         0       0       0       0       0
  2082 ;;      Locals:         1       0       0       0       0
  2083 ;;      Temps:          0       0       0       0       0
  2084 ;;      Totals:         1       0       0       0       0
  2085 ;;Total ram usage:        1 bytes
  2086 ;; Hardware stack levels used:    1
  2087 ;; This function calls:
  2088 ;;		Nothing
  2089 ;; This function is called by:
  2090 ;;		_send_lcd_data
  2091 ;; This function uses a non-reentrant model
  2092 ;;
  2093                           
  2094                           
  2095                           ;psect for function _set_lcd_data
  2096  03D6                     _set_lcd_data:	
  2097                           
  2098                           ;incstack = 0
  2099                           ; Regs used in _set_lcd_data: [wreg]
  2100                           ;set_lcd_data@uc_data stored from wreg
  2101  03D6  00F0               	movwf	set_lcd_data@uc_data
  2102                           
  2103                           ;lcd.c: 382: PORTD = uc_data;
  2104  03D7  0870               	movf	set_lcd_data@uc_data,w
  2105  03D8  1283               	bcf	3,5	;RP0=0, select bank0
  2106  03D9  1303               	bcf	3,6	;RP1=0, select bank0
  2107  03DA  0088               	movwf	8	;volatile
  2108  03DB  0008               	return
  2109  03DC                     __end_of_set_lcd_data:	
  2110                           
  2111                           	psect	text12
  2112  04AE                     __ptext12:	
  2113 ;; *************** function ___lwmod *****************
  2114 ;; Defined at:
  2115 ;;		line 6 in file "C:\Program Files (x86)\Microchip\xc8\v1.45\sources\common\lwmod.c"
  2116 ;; Parameters:    Size  Location     Type
  2117 ;;  divisor         2    0[COMMON] unsigned int 
  2118 ;;  dividend        2    2[COMMON] unsigned int 
  2119 ;; Auto vars:     Size  Location     Type
  2120 ;;  counter         1    5[COMMON] unsigned char 
  2121 ;; Return value:  Size  Location     Type
  2122 ;;                  2    0[COMMON] unsigned int 
  2123 ;; Registers used:
  2124 ;;		wreg, status,2, status,0
  2125 ;; Tracked objects:
  2126 ;;		On entry : 0/0
  2127 ;;		On exit  : 0/0
  2128 ;;		Unchanged: 0/0
  2129 ;; Data sizes:     COMMON   BANK0   BANK1   BANK3   BANK2
  2130 ;;      Params:         4       0       0       0       0
  2131 ;;      Locals:         1       0       0       0       0
  2132 ;;      Temps:          1       0       0       0       0
  2133 ;;      Totals:         6       0       0       0       0
  2134 ;;Total ram usage:        6 bytes
  2135 ;; Hardware stack levels used:    1
  2136 ;; This function calls:
  2137 ;;		Nothing
  2138 ;; This function is called by:
  2139 ;;		_lcd_bcd
  2140 ;; This function uses a non-reentrant model
  2141 ;;
  2142                           
  2143                           
  2144                           ;psect for function ___lwmod
  2145  04AE                     ___lwmod:	
  2146                           
  2147                           ;incstack = 0
  2148                           ; Regs used in ___lwmod: [wreg+status,2+status,0]
  2149  04AE  0870               	movf	___lwmod@divisor,w
  2150  04AF  0471               	iorwf	___lwmod@divisor+1,w
  2151  04B0  1903               	btfsc	3,2
  2152  04B1  2CDB               	goto	l1094
  2153  04B2  01F5               	clrf	___lwmod@counter
  2154  04B3  0AF5               	incf	___lwmod@counter,f
  2155  04B4                     l1084:	
  2156  04B4  1BF1               	btfsc	___lwmod@divisor+1,7
  2157  04B5  2CC2               	goto	l1086
  2158  04B6  3001               	movlw	1
  2159  04B7                     u635:	
  2160  04B7  1003               	clrc
  2161  04B8  0DF0               	rlf	___lwmod@divisor,f
  2162  04B9  0DF1               	rlf	___lwmod@divisor+1,f
  2163  04BA  3EFF               	addlw	-1
  2164  04BB  1D03               	skipz
  2165  04BC  2CB7               	goto	u635
  2166  04BD  3001               	movlw	1
  2167  04BE  00F4               	movwf	??___lwmod
  2168  04BF  0874               	movf	??___lwmod,w
  2169  04C0  07F5               	addwf	___lwmod@counter,f
  2170  04C1  2CB4               	goto	l1084
  2171  04C2                     l1086:	
  2172  04C2  0871               	movf	___lwmod@divisor+1,w
  2173  04C3  0273               	subwf	___lwmod@dividend+1,w
  2174  04C4  1D03               	skipz
  2175  04C5  2CC8               	goto	u655
  2176  04C6  0870               	movf	___lwmod@divisor,w
  2177  04C7  0272               	subwf	___lwmod@dividend,w
  2178  04C8                     u655:	
  2179  04C8  1C03               	skipc
  2180  04C9  2CD0               	goto	l1090
  2181  04CA  0870               	movf	___lwmod@divisor,w
  2182  04CB  02F2               	subwf	___lwmod@dividend,f
  2183  04CC  0871               	movf	___lwmod@divisor+1,w
  2184  04CD  1C03               	skipc
  2185  04CE  03F3               	decf	___lwmod@dividend+1,f
  2186  04CF  02F3               	subwf	___lwmod@dividend+1,f
  2187  04D0                     l1090:	
  2188  04D0  3001               	movlw	1
  2189  04D1                     u665:	
  2190  04D1  1003               	clrc
  2191  04D2  0CF1               	rrf	___lwmod@divisor+1,f
  2192  04D3  0CF0               	rrf	___lwmod@divisor,f
  2193  04D4  3EFF               	addlw	-1
  2194  04D5  1D03               	skipz
  2195  04D6  2CD1               	goto	u665
  2196  04D7  3001               	movlw	1
  2197  04D8  02F5               	subwf	___lwmod@counter,f
  2198  04D9  1D03               	btfss	3,2
  2199  04DA  2CC2               	goto	l1086
  2200  04DB                     l1094:	
  2201  04DB  0873               	movf	___lwmod@dividend+1,w
  2202  04DC  00F1               	movwf	?___lwmod+1
  2203  04DD  0872               	movf	___lwmod@dividend,w
  2204  04DE  00F0               	movwf	?___lwmod
  2205  04DF  0008               	return
  2206  04E0                     __end_of___lwmod:	
  2207                           
  2208                           	psect	text13
  2209  0581                     __ptext13:	
  2210 ;; *************** function ___lwdiv *****************
  2211 ;; Defined at:
  2212 ;;		line 6 in file "C:\Program Files (x86)\Microchip\xc8\v1.45\sources\common\lwdiv.c"
  2213 ;; Parameters:    Size  Location     Type
  2214 ;;  divisor         2    0[COMMON] unsigned int 
  2215 ;;  dividend        2    2[COMMON] unsigned int 
  2216 ;; Auto vars:     Size  Location     Type
  2217 ;;  quotient        2    5[COMMON] unsigned int 
  2218 ;;  counter         1    7[COMMON] unsigned char 
  2219 ;; Return value:  Size  Location     Type
  2220 ;;                  2    0[COMMON] unsigned int 
  2221 ;; Registers used:
  2222 ;;		wreg, status,2, status,0
  2223 ;; Tracked objects:
  2224 ;;		On entry : 0/0
  2225 ;;		On exit  : 0/0
  2226 ;;		Unchanged: 0/0
  2227 ;; Data sizes:     COMMON   BANK0   BANK1   BANK3   BANK2
  2228 ;;      Params:         4       0       0       0       0
  2229 ;;      Locals:         3       0       0       0       0
  2230 ;;      Temps:          1       0       0       0       0
  2231 ;;      Totals:         8       0       0       0       0
  2232 ;;Total ram usage:        8 bytes
  2233 ;; Hardware stack levels used:    1
  2234 ;; This function calls:
  2235 ;;		Nothing
  2236 ;; This function is called by:
  2237 ;;		_lcd_bcd
  2238 ;; This function uses a non-reentrant model
  2239 ;;
  2240                           
  2241                           
  2242                           ;psect for function ___lwdiv
  2243  0581                     ___lwdiv:	
  2244                           
  2245                           ;incstack = 0
  2246                           ; Regs used in ___lwdiv: [wreg+status,2+status,0]
  2247  0581  01F5               	clrf	___lwdiv@quotient
  2248  0582  01F6               	clrf	___lwdiv@quotient+1
  2249  0583  0870               	movf	___lwdiv@divisor,w
  2250  0584  0471               	iorwf	___lwdiv@divisor+1,w
  2251  0585  1903               	btfsc	3,2
  2252  0586  2DB8               	goto	l1072
  2253  0587  01F7               	clrf	___lwdiv@counter
  2254  0588  0AF7               	incf	___lwdiv@counter,f
  2255  0589                     l1060:	
  2256  0589  1BF1               	btfsc	___lwdiv@divisor+1,7
  2257  058A  2D97               	goto	l1062
  2258  058B  3001               	movlw	1
  2259  058C                     u565:	
  2260  058C  1003               	clrc
  2261  058D  0DF0               	rlf	___lwdiv@divisor,f
  2262  058E  0DF1               	rlf	___lwdiv@divisor+1,f
  2263  058F  3EFF               	addlw	-1
  2264  0590  1D03               	skipz
  2265  0591  2D8C               	goto	u565
  2266  0592  3001               	movlw	1
  2267  0593  00F4               	movwf	??___lwdiv
  2268  0594  0874               	movf	??___lwdiv,w
  2269  0595  07F7               	addwf	___lwdiv@counter,f
  2270  0596  2D89               	goto	l1060
  2271  0597                     l1062:	
  2272  0597  3001               	movlw	1
  2273  0598                     u585:	
  2274  0598  1003               	clrc
  2275  0599  0DF5               	rlf	___lwdiv@quotient,f
  2276  059A  0DF6               	rlf	___lwdiv@quotient+1,f
  2277  059B  3EFF               	addlw	-1
  2278  059C  1D03               	skipz
  2279  059D  2D98               	goto	u585
  2280  059E  0871               	movf	___lwdiv@divisor+1,w
  2281  059F  0273               	subwf	___lwdiv@dividend+1,w
  2282  05A0  1D03               	skipz
  2283  05A1  2DA4               	goto	u595
  2284  05A2  0870               	movf	___lwdiv@divisor,w
  2285  05A3  0272               	subwf	___lwdiv@dividend,w
  2286  05A4                     u595:	
  2287  05A4  1C03               	skipc
  2288  05A5  2DAD               	goto	l1068
  2289  05A6  0870               	movf	___lwdiv@divisor,w
  2290  05A7  02F2               	subwf	___lwdiv@dividend,f
  2291  05A8  0871               	movf	___lwdiv@divisor+1,w
  2292  05A9  1C03               	skipc
  2293  05AA  03F3               	decf	___lwdiv@dividend+1,f
  2294  05AB  02F3               	subwf	___lwdiv@dividend+1,f
  2295  05AC  1475               	bsf	___lwdiv@quotient,0
  2296  05AD                     l1068:	
  2297  05AD  3001               	movlw	1
  2298  05AE                     u605:	
  2299  05AE  1003               	clrc
  2300  05AF  0CF1               	rrf	___lwdiv@divisor+1,f
  2301  05B0  0CF0               	rrf	___lwdiv@divisor,f
  2302  05B1  3EFF               	addlw	-1
  2303  05B2  1D03               	skipz
  2304  05B3  2DAE               	goto	u605
  2305  05B4  3001               	movlw	1
  2306  05B5  02F7               	subwf	___lwdiv@counter,f
  2307  05B6  1D03               	btfss	3,2
  2308  05B7  2D97               	goto	l1062
  2309  05B8                     l1072:	
  2310  05B8  0876               	movf	___lwdiv@quotient+1,w
  2311  05B9  00F1               	movwf	?___lwdiv+1
  2312  05BA  0875               	movf	___lwdiv@quotient,w
  2313  05BB  00F0               	movwf	?___lwdiv
  2314  05BC  0008               	return
  2315  05BD                     __end_of___lwdiv:	
  2316                           
  2317                           	psect	text14
  2318  0436                     __ptext14:	
  2319 ;; *************** function _extGPIOAdir *****************
  2320 ;; Defined at:
  2321 ;;		line 21 in file "main.c"
  2322 ;; Parameters:    Size  Location     Type
  2323 ;;  a               2    2[COMMON] unsigned short 
  2324 ;; Auto vars:     Size  Location     Type
  2325 ;;		None
  2326 ;; Return value:  Size  Location     Type
  2327 ;;                  1    wreg      void 
  2328 ;; Registers used:
  2329 ;;		wreg, status,2, status,0, pclath, cstack
  2330 ;; Tracked objects:
  2331 ;;		On entry : 0/0
  2332 ;;		On exit  : 0/0
  2333 ;;		Unchanged: 0/0
  2334 ;; Data sizes:     COMMON   BANK0   BANK1   BANK3   BANK2
  2335 ;;      Params:         2       0       0       0       0
  2336 ;;      Locals:         0       0       0       0       0
  2337 ;;      Temps:          0       0       0       0       0
  2338 ;;      Totals:         2       0       0       0       0
  2339 ;;Total ram usage:        2 bytes
  2340 ;; Hardware stack levels used:    1
  2341 ;; Hardware stack levels required when called:    2
  2342 ;; This function calls:
  2343 ;;		_I2C_Master_Start
  2344 ;;		_I2C_Master_Stop
  2345 ;;		_I2C_Master_Write
  2346 ;; This function is called by:
  2347 ;;		_main
  2348 ;; This function uses a non-reentrant model
  2349 ;;
  2350                           
  2351                           
  2352                           ;psect for function _extGPIOAdir
  2353  0436                     _extGPIOAdir:	
  2354                           
  2355                           ;main.c: 23: I2C_Master_Start();
  2356                           
  2357                           ;incstack = 0
  2358                           ; Regs used in _extGPIOAdir: [wreg+status,2+status,0+pclath+cstack]
  2359  0436  120A  118A  23DC  120A  118A  	fcall	_I2C_Master_Start
  2360                           
  2361                           ;main.c: 24: I2C_Master_Write(0b01000000);
  2362  043B  3040               	movlw	64
  2363  043C  00F0               	movwf	I2C_Master_Write@d
  2364  043D  3000               	movlw	0
  2365  043E  00F1               	movwf	I2C_Master_Write@d+1
  2366  043F  120A  118A  23F1  120A  118A  	fcall	_I2C_Master_Write
  2367                           
  2368                           ;main.c: 25: I2C_Master_Write(0x00);
  2369  0444  3000               	movlw	0
  2370  0445  00F0               	movwf	I2C_Master_Write@d
  2371  0446  00F1               	movwf	I2C_Master_Write@d+1
  2372  0447  120A  118A  23F1  120A  118A  	fcall	_I2C_Master_Write
  2373                           
  2374                           ;main.c: 26: I2C_Master_Write(a);
  2375  044C  0873               	movf	extGPIOAdir@a+1,w
  2376  044D  00F1               	movwf	I2C_Master_Write@d+1
  2377  044E  0872               	movf	extGPIOAdir@a,w
  2378  044F  00F0               	movwf	I2C_Master_Write@d
  2379  0450  120A  118A  23F1  120A  118A  	fcall	_I2C_Master_Write
  2380                           
  2381                           ;main.c: 27: I2C_Master_Stop();
  2382  0455  120A  118A  23E3   	fcall	_I2C_Master_Stop
  2383  0458  0008               	return
  2384  0459                     __end_of_extGPIOAdir:	
  2385                           
  2386                           	psect	text15
  2387  0459                     __ptext15:	
  2388 ;; *************** function _extGPIOA *****************
  2389 ;; Defined at:
  2390 ;;		line 30 in file "main.c"
  2391 ;; Parameters:    Size  Location     Type
  2392 ;;  a               2    2[COMMON] unsigned short 
  2393 ;; Auto vars:     Size  Location     Type
  2394 ;;		None
  2395 ;; Return value:  Size  Location     Type
  2396 ;;                  1    wreg      void 
  2397 ;; Registers used:
  2398 ;;		wreg, status,2, status,0, pclath, cstack
  2399 ;; Tracked objects:
  2400 ;;		On entry : 0/0
  2401 ;;		On exit  : 0/0
  2402 ;;		Unchanged: 0/0
  2403 ;; Data sizes:     COMMON   BANK0   BANK1   BANK3   BANK2
  2404 ;;      Params:         2       0       0       0       0
  2405 ;;      Locals:         0       0       0       0       0
  2406 ;;      Temps:          0       0       0       0       0
  2407 ;;      Totals:         2       0       0       0       0
  2408 ;;Total ram usage:        2 bytes
  2409 ;; Hardware stack levels used:    1
  2410 ;; Hardware stack levels required when called:    2
  2411 ;; This function calls:
  2412 ;;		_I2C_Master_Start
  2413 ;;		_I2C_Master_Stop
  2414 ;;		_I2C_Master_Write
  2415 ;; This function is called by:
  2416 ;;		_main
  2417 ;; This function uses a non-reentrant model
  2418 ;;
  2419                           
  2420                           
  2421                           ;psect for function _extGPIOA
  2422  0459                     _extGPIOA:	
  2423                           
  2424                           ;main.c: 32: I2C_Master_Start();
  2425                           
  2426                           ;incstack = 0
  2427                           ; Regs used in _extGPIOA: [wreg+status,2+status,0+pclath+cstack]
  2428  0459  120A  118A  23DC  120A  118A  	fcall	_I2C_Master_Start
  2429                           
  2430                           ;main.c: 33: I2C_Master_Write(0b01000000);
  2431  045E  3040               	movlw	64
  2432  045F  00F0               	movwf	I2C_Master_Write@d
  2433  0460  3000               	movlw	0
  2434  0461  00F1               	movwf	I2C_Master_Write@d+1
  2435  0462  120A  118A  23F1  120A  118A  	fcall	_I2C_Master_Write
  2436                           
  2437                           ;main.c: 34: I2C_Master_Write(0x09);
  2438  0467  3009               	movlw	9
  2439  0468  00F0               	movwf	I2C_Master_Write@d
  2440  0469  3000               	movlw	0
  2441  046A  00F1               	movwf	I2C_Master_Write@d+1
  2442  046B  120A  118A  23F1  120A  118A  	fcall	_I2C_Master_Write
  2443                           
  2444                           ;main.c: 35: I2C_Master_Write(a);
  2445  0470  0873               	movf	extGPIOA@a+1,w
  2446  0471  00F1               	movwf	I2C_Master_Write@d+1
  2447  0472  0872               	movf	extGPIOA@a,w
  2448  0473  00F0               	movwf	I2C_Master_Write@d
  2449  0474  120A  118A  23F1  120A  118A  	fcall	_I2C_Master_Write
  2450                           
  2451                           ;main.c: 36: I2C_Master_Stop();
  2452  0479  120A  118A  23E3   	fcall	_I2C_Master_Stop
  2453  047C  0008               	return
  2454  047D                     __end_of_extGPIOA:	
  2455                           
  2456                           	psect	text16
  2457  03F1                     __ptext16:	
  2458 ;; *************** function _I2C_Master_Write *****************
  2459 ;; Defined at:
  2460 ;;		line 38 in file "i2c.c"
  2461 ;; Parameters:    Size  Location     Type
  2462 ;;  d               2    0[COMMON] unsigned int 
  2463 ;; Auto vars:     Size  Location     Type
  2464 ;;		None
  2465 ;; Return value:  Size  Location     Type
  2466 ;;                  1    wreg      void 
  2467 ;; Registers used:
  2468 ;;		wreg, status,2, status,0, pclath, cstack
  2469 ;; Tracked objects:
  2470 ;;		On entry : 0/0
  2471 ;;		On exit  : 0/0
  2472 ;;		Unchanged: 0/0
  2473 ;; Data sizes:     COMMON   BANK0   BANK1   BANK3   BANK2
  2474 ;;      Params:         2       0       0       0       0
  2475 ;;      Locals:         0       0       0       0       0
  2476 ;;      Temps:          0       0       0       0       0
  2477 ;;      Totals:         2       0       0       0       0
  2478 ;;Total ram usage:        2 bytes
  2479 ;; Hardware stack levels used:    1
  2480 ;; Hardware stack levels required when called:    1
  2481 ;; This function calls:
  2482 ;;		_I2C_Master_Wait
  2483 ;; This function is called by:
  2484 ;;		_extGPIOAdir
  2485 ;;		_extGPIOA
  2486 ;;		_main
  2487 ;; This function uses a non-reentrant model
  2488 ;;
  2489                           
  2490                           
  2491                           ;psect for function _I2C_Master_Write
  2492  03F1                     _I2C_Master_Write:	
  2493                           
  2494                           ;i2c.c: 40: I2C_Master_Wait();
  2495                           
  2496                           ;incstack = 0
  2497                           ; Regs used in _I2C_Master_Write: [wreg+status,2+status,0+pclath+cstack]
  2498  03F1  120A  118A  23F9   	fcall	_I2C_Master_Wait
  2499                           
  2500                           ;i2c.c: 41: SSPBUF = d;
  2501  03F4  0870               	movf	I2C_Master_Write@d,w
  2502  03F5  1283               	bcf	3,5	;RP0=0, select bank0
  2503  03F6  1303               	bcf	3,6	;RP1=0, select bank0
  2504  03F7  0093               	movwf	19	;volatile
  2505  03F8  0008               	return
  2506  03F9                     __end_of_I2C_Master_Write:	
  2507                           
  2508                           	psect	text17
  2509  03E3                     __ptext17:	
  2510 ;; *************** function _I2C_Master_Stop *****************
  2511 ;; Defined at:
  2512 ;;		line 32 in file "i2c.c"
  2513 ;; Parameters:    Size  Location     Type
  2514 ;;		None
  2515 ;; Auto vars:     Size  Location     Type
  2516 ;;		None
  2517 ;; Return value:  Size  Location     Type
  2518 ;;                  1    wreg      void 
  2519 ;; Registers used:
  2520 ;;		wreg, status,2, status,0, pclath, cstack
  2521 ;; Tracked objects:
  2522 ;;		On entry : 0/0
  2523 ;;		On exit  : 0/0
  2524 ;;		Unchanged: 0/0
  2525 ;; Data sizes:     COMMON   BANK0   BANK1   BANK3   BANK2
  2526 ;;      Params:         0       0       0       0       0
  2527 ;;      Locals:         0       0       0       0       0
  2528 ;;      Temps:          0       0       0       0       0
  2529 ;;      Totals:         0       0       0       0       0
  2530 ;;Total ram usage:        0 bytes
  2531 ;; Hardware stack levels used:    1
  2532 ;; Hardware stack levels required when called:    1
  2533 ;; This function calls:
  2534 ;;		_I2C_Master_Wait
  2535 ;; This function is called by:
  2536 ;;		_extGPIOAdir
  2537 ;;		_extGPIOA
  2538 ;;		_main
  2539 ;; This function uses a non-reentrant model
  2540 ;;
  2541                           
  2542                           
  2543                           ;psect for function _I2C_Master_Stop
  2544  03E3                     _I2C_Master_Stop:	
  2545                           
  2546                           ;i2c.c: 34: I2C_Master_Wait();
  2547                           
  2548                           ;incstack = 0
  2549                           ; Regs used in _I2C_Master_Stop: [wreg+status,2+status,0+pclath+cstack]
  2550  03E3  120A  118A  23F9   	fcall	_I2C_Master_Wait
  2551                           
  2552                           ;i2c.c: 35: PEN = 1;
  2553  03E6  1683               	bsf	3,5	;RP0=1, select bank1
  2554  03E7  1303               	bcf	3,6	;RP1=0, select bank1
  2555  03E8  1511               	bsf	17,2	;volatile
  2556  03E9  0008               	return
  2557  03EA                     __end_of_I2C_Master_Stop:	
  2558                           
  2559                           	psect	text18
  2560  03DC                     __ptext18:	
  2561 ;; *************** function _I2C_Master_Start *****************
  2562 ;; Defined at:
  2563 ;;		line 20 in file "i2c.c"
  2564 ;; Parameters:    Size  Location     Type
  2565 ;;		None
  2566 ;; Auto vars:     Size  Location     Type
  2567 ;;		None
  2568 ;; Return value:  Size  Location     Type
  2569 ;;                  1    wreg      void 
  2570 ;; Registers used:
  2571 ;;		wreg, status,2, status,0, pclath, cstack
  2572 ;; Tracked objects:
  2573 ;;		On entry : 0/0
  2574 ;;		On exit  : 0/0
  2575 ;;		Unchanged: 0/0
  2576 ;; Data sizes:     COMMON   BANK0   BANK1   BANK3   BANK2
  2577 ;;      Params:         0       0       0       0       0
  2578 ;;      Locals:         0       0       0       0       0
  2579 ;;      Temps:          0       0       0       0       0
  2580 ;;      Totals:         0       0       0       0       0
  2581 ;;Total ram usage:        0 bytes
  2582 ;; Hardware stack levels used:    1
  2583 ;; Hardware stack levels required when called:    1
  2584 ;; This function calls:
  2585 ;;		_I2C_Master_Wait
  2586 ;; This function is called by:
  2587 ;;		_extGPIOAdir
  2588 ;;		_extGPIOA
  2589 ;;		_main
  2590 ;; This function uses a non-reentrant model
  2591 ;;
  2592                           
  2593                           
  2594                           ;psect for function _I2C_Master_Start
  2595  03DC                     _I2C_Master_Start:	
  2596                           
  2597                           ;i2c.c: 22: I2C_Master_Wait();
  2598                           
  2599                           ;incstack = 0
  2600                           ; Regs used in _I2C_Master_Start: [wreg+status,2+status,0+pclath+cstack]
  2601  03DC  120A  118A  23F9   	fcall	_I2C_Master_Wait
  2602                           
  2603                           ;i2c.c: 23: SEN = 1;
  2604  03DF  1683               	bsf	3,5	;RP0=1, select bank1
  2605  03E0  1303               	bcf	3,6	;RP1=0, select bank1
  2606  03E1  1411               	bsf	17,0	;volatile
  2607  03E2  0008               	return
  2608  03E3                     __end_of_I2C_Master_Start:	
  2609                           
  2610                           	psect	text19
  2611  03F9                     __ptext19:	
  2612 ;; *************** function _I2C_Master_Wait *****************
  2613 ;; Defined at:
  2614 ;;		line 15 in file "i2c.c"
  2615 ;; Parameters:    Size  Location     Type
  2616 ;;		None
  2617 ;; Auto vars:     Size  Location     Type
  2618 ;;		None
  2619 ;; Return value:  Size  Location     Type
  2620 ;;                  1    wreg      void 
  2621 ;; Registers used:
  2622 ;;		wreg, status,2
  2623 ;; Tracked objects:
  2624 ;;		On entry : 0/0
  2625 ;;		On exit  : 0/0
  2626 ;;		Unchanged: 0/0
  2627 ;; Data sizes:     COMMON   BANK0   BANK1   BANK3   BANK2
  2628 ;;      Params:         0       0       0       0       0
  2629 ;;      Locals:         0       0       0       0       0
  2630 ;;      Temps:          0       0       0       0       0
  2631 ;;      Totals:         0       0       0       0       0
  2632 ;;Total ram usage:        0 bytes
  2633 ;; Hardware stack levels used:    1
  2634 ;; This function calls:
  2635 ;;		Nothing
  2636 ;; This function is called by:
  2637 ;;		_I2C_Master_Start
  2638 ;;		_I2C_Master_Stop
  2639 ;;		_I2C_Master_Write
  2640 ;;		_I2C_Master_RepeatedStart
  2641 ;;		_I2C_Master_Read
  2642 ;; This function uses a non-reentrant model
  2643 ;;
  2644                           
  2645                           
  2646                           ;psect for function _I2C_Master_Wait
  2647  03F9                     _I2C_Master_Wait:	
  2648  03F9                     l196:	
  2649                           ;i2c.c: 17: while ((SSPSTAT & 0x04) || (SSPCON2 & 0x1F));
  2650                           
  2651                           ;incstack = 0
  2652                           ; Regs used in _I2C_Master_Wait: [wreg+status,2]
  2653                           
  2654  03F9  1683               	bsf	3,5	;RP0=1, select bank1
  2655  03FA  1303               	bcf	3,6	;RP1=0, select bank1
  2656  03FB  1914               	btfsc	20,2	;volatile
  2657  03FC  2BF9               	goto	l196
  2658  03FD  0811               	movf	17,w	;volatile
  2659  03FE  391F               	andlw	31
  2660  03FF  1903               	btfsc	3,2
  2661  0400  0008               	return
  2662  0401  2BF9               	goto	l196
  2663  0402                     __end_of_I2C_Master_Wait:	
  2664                           
  2665                           	psect	text20
  2666  03D5                     __ptext20:	
  2667 ;; *************** function _InitApp *****************
  2668 ;; Defined at:
  2669 ;;		line 22 in file "user.c"
  2670 ;; Parameters:    Size  Location     Type
  2671 ;;		None
  2672 ;; Auto vars:     Size  Location     Type
  2673 ;;		None
  2674 ;; Return value:  Size  Location     Type
  2675 ;;                  1    wreg      void 
  2676 ;; Registers used:
  2677 ;;		None
  2678 ;; Tracked objects:
  2679 ;;		On entry : 0/0
  2680 ;;		On exit  : 0/0
  2681 ;;		Unchanged: 0/0
  2682 ;; Data sizes:     COMMON   BANK0   BANK1   BANK3   BANK2
  2683 ;;      Params:         0       0       0       0       0
  2684 ;;      Locals:         0       0       0       0       0
  2685 ;;      Temps:          0       0       0       0       0
  2686 ;;      Totals:         0       0       0       0       0
  2687 ;;Total ram usage:        0 bytes
  2688 ;; Hardware stack levels used:    1
  2689 ;; This function calls:
  2690 ;;		Nothing
  2691 ;; This function is called by:
  2692 ;;		_main
  2693 ;; This function uses a non-reentrant model
  2694 ;;
  2695                           
  2696                           
  2697                           ;psect for function _InitApp
  2698  03D5                     _InitApp:	
  2699                           
  2700                           ;incstack = 0
  2701                           ; Regs used in _InitApp: []
  2702  03D5  0008               	return
  2703  03D6                     __end_of_InitApp:	
  2704                           
  2705                           	psect	text21
  2706  0515                     __ptext21:	
  2707 ;; *************** function _I2C_Master_Init *****************
  2708 ;; Defined at:
  2709 ;;		line 5 in file "i2c.c"
  2710 ;; Parameters:    Size  Location     Type
  2711 ;;  c               4    0[BANK0 ] const unsigned long 
  2712 ;; Auto vars:     Size  Location     Type
  2713 ;;		None
  2714 ;; Return value:  Size  Location     Type
  2715 ;;                  1    wreg      void 
  2716 ;; Registers used:
  2717 ;;		wreg, status,2, status,0, pclath, cstack
  2718 ;; Tracked objects:
  2719 ;;		On entry : 0/0
  2720 ;;		On exit  : 0/0
  2721 ;;		Unchanged: 0/0
  2722 ;; Data sizes:     COMMON   BANK0   BANK1   BANK3   BANK2
  2723 ;;      Params:         0       4       0       0       0
  2724 ;;      Locals:         0       0       0       0       0
  2725 ;;      Temps:          0       4       0       0       0
  2726 ;;      Totals:         0       8       0       0       0
  2727 ;;Total ram usage:        8 bytes
  2728 ;; Hardware stack levels used:    1
  2729 ;; Hardware stack levels required when called:    1
  2730 ;; This function calls:
  2731 ;;		___lldiv
  2732 ;; This function is called by:
  2733 ;;		_main
  2734 ;; This function uses a non-reentrant model
  2735 ;;
  2736                           
  2737                           
  2738                           ;psect for function _I2C_Master_Init
  2739  0515                     _I2C_Master_Init:	
  2740                           
  2741                           ;i2c.c: 7: SSPCON = 0b00101000;
  2742                           
  2743                           ;incstack = 0
  2744                           ; Regs used in _I2C_Master_Init: [wreg+status,2+status,0+pclath+cstack]
  2745  0515  3028               	movlw	40
  2746  0516  1283               	bcf	3,5	;RP0=0, select bank0
  2747  0517  1303               	bcf	3,6	;RP1=0, select bank0
  2748  0518  0094               	movwf	20	;volatile
  2749                           
  2750                           ;i2c.c: 8: SSPCON2 = 0;
  2751  0519  1683               	bsf	3,5	;RP0=1, select bank1
  2752  051A  1303               	bcf	3,6	;RP1=0, select bank1
  2753  051B  0191               	clrf	17	;volatile
  2754                           
  2755                           ;i2c.c: 9: SSPADD = (20000000/(4*c))-1;
  2756  051C  1283               	bcf	3,5	;RP0=0, select bank0
  2757  051D  1303               	bcf	3,6	;RP1=0, select bank0
  2758  051E  0820               	movf	I2C_Master_Init@c,w
  2759  051F  00A4               	movwf	??_I2C_Master_Init
  2760  0520  0821               	movf	I2C_Master_Init@c+1,w
  2761  0521  00A5               	movwf	??_I2C_Master_Init+1
  2762  0522  0822               	movf	I2C_Master_Init@c+2,w
  2763  0523  00A6               	movwf	??_I2C_Master_Init+2
  2764  0524  0823               	movf	I2C_Master_Init@c+3,w
  2765  0525  00A7               	movwf	??_I2C_Master_Init+3
  2766  0526  3002               	movlw	2
  2767  0527                     u685:	
  2768  0527  1003               	clrc
  2769  0528  0DA4               	rlf	??_I2C_Master_Init,f
  2770  0529  0DA5               	rlf	??_I2C_Master_Init+1,f
  2771  052A  0DA6               	rlf	??_I2C_Master_Init+2,f
  2772  052B  0DA7               	rlf	??_I2C_Master_Init+3,f
  2773  052C  3EFF               	addlw	-1
  2774  052D  1D03               	skipz
  2775  052E  2D27               	goto	u685
  2776  052F  0827               	movf	??_I2C_Master_Init+3,w
  2777  0530  00F3               	movwf	___lldiv@divisor+3
  2778  0531  0826               	movf	??_I2C_Master_Init+2,w
  2779  0532  00F2               	movwf	___lldiv@divisor+2
  2780  0533  0825               	movf	??_I2C_Master_Init+1,w
  2781  0534  00F1               	movwf	___lldiv@divisor+1
  2782  0535  0824               	movf	??_I2C_Master_Init,w
  2783  0536  00F0               	movwf	___lldiv@divisor
  2784  0537  3001               	movlw	1
  2785  0538  00F7               	movwf	___lldiv@dividend+3
  2786  0539  3031               	movlw	49
  2787  053A  00F6               	movwf	___lldiv@dividend+2
  2788  053B  302D               	movlw	45
  2789  053C  00F5               	movwf	___lldiv@dividend+1
  2790  053D  3000               	movlw	0
  2791  053E  00F4               	movwf	___lldiv@dividend
  2792  053F  120A  118A  25BD   	fcall	___lldiv
  2793  0542  0870               	movf	?___lldiv,w
  2794  0543  3EFF               	addlw	255
  2795  0544  1683               	bsf	3,5	;RP0=1, select bank1
  2796  0545  1303               	bcf	3,6	;RP1=0, select bank1
  2797  0546  0093               	movwf	19	;volatile
  2798                           
  2799                           ;i2c.c: 10: SSPSTAT = 0;
  2800  0547  0194               	clrf	20	;volatile
  2801                           
  2802                           ;i2c.c: 11: TRISC3 = 1;
  2803  0548  1587               	bsf	7,3	;volatile
  2804                           
  2805                           ;i2c.c: 12: TRISC4 = 1;
  2806  0549  1607               	bsf	7,4	;volatile
  2807  054A  0008               	return
  2808  054B                     __end_of_I2C_Master_Init:	
  2809                           
  2810                           	psect	text22
  2811  05BD                     __ptext22:	
  2812 ;; *************** function ___lldiv *****************
  2813 ;; Defined at:
  2814 ;;		line 6 in file "C:\Program Files (x86)\Microchip\xc8\v1.45\sources\common\lldiv.c"
  2815 ;; Parameters:    Size  Location     Type
  2816 ;;  divisor         4    0[COMMON] unsigned long 
  2817 ;;  dividend        4    4[COMMON] unsigned long 
  2818 ;; Auto vars:     Size  Location     Type
  2819 ;;  quotient        4    9[COMMON] unsigned long 
  2820 ;;  counter         1   13[COMMON] unsigned char 
  2821 ;; Return value:  Size  Location     Type
  2822 ;;                  4    0[COMMON] unsigned long 
  2823 ;; Registers used:
  2824 ;;		wreg, status,2, status,0
  2825 ;; Tracked objects:
  2826 ;;		On entry : 0/0
  2827 ;;		On exit  : 0/0
  2828 ;;		Unchanged: 0/0
  2829 ;; Data sizes:     COMMON   BANK0   BANK1   BANK3   BANK2
  2830 ;;      Params:         8       0       0       0       0
  2831 ;;      Locals:         5       0       0       0       0
  2832 ;;      Temps:          1       0       0       0       0
  2833 ;;      Totals:        14       0       0       0       0
  2834 ;;Total ram usage:       14 bytes
  2835 ;; Hardware stack levels used:    1
  2836 ;; This function calls:
  2837 ;;		Nothing
  2838 ;; This function is called by:
  2839 ;;		_I2C_Master_Init
  2840 ;; This function uses a non-reentrant model
  2841 ;;
  2842                           
  2843                           
  2844                           ;psect for function ___lldiv
  2845  05BD                     ___lldiv:	
  2846                           
  2847                           ;incstack = 0
  2848                           ; Regs used in ___lldiv: [wreg+status,2+status,0]
  2849  05BD  3000               	movlw	0
  2850  05BE  00FC               	movwf	___lldiv@quotient+3
  2851  05BF  3000               	movlw	0
  2852  05C0  00FB               	movwf	___lldiv@quotient+2
  2853  05C1  3000               	movlw	0
  2854  05C2  00FA               	movwf	___lldiv@quotient+1
  2855  05C3  3000               	movlw	0
  2856  05C4  00F9               	movwf	___lldiv@quotient
  2857  05C5  0873               	movf	___lldiv@divisor+3,w
  2858  05C6  0472               	iorwf	___lldiv@divisor+2,w
  2859  05C7  0471               	iorwf	___lldiv@divisor+1,w
  2860  05C8  0470               	iorwf	___lldiv@divisor,w
  2861  05C9  1903               	skipnz
  2862  05CA  2E12               	goto	l1046
  2863  05CB  01FD               	clrf	___lldiv@counter
  2864  05CC  0AFD               	incf	___lldiv@counter,f
  2865  05CD                     l1032:	
  2866  05CD  1BF3               	btfsc	___lldiv@divisor+3,7
  2867  05CE  2DDD               	goto	l1034
  2868  05CF  3001               	movlw	1
  2869  05D0  00F8               	movwf	??___lldiv
  2870  05D1                     u495:	
  2871  05D1  1003               	clrc
  2872  05D2  0DF0               	rlf	___lldiv@divisor,f
  2873  05D3  0DF1               	rlf	___lldiv@divisor+1,f
  2874  05D4  0DF2               	rlf	___lldiv@divisor+2,f
  2875  05D5  0DF3               	rlf	___lldiv@divisor+3,f
  2876  05D6  0BF8               	decfsz	??___lldiv,f
  2877  05D7  2DD1               	goto	u495
  2878  05D8  3001               	movlw	1
  2879  05D9  00F8               	movwf	??___lldiv
  2880  05DA  0878               	movf	??___lldiv,w
  2881  05DB  07FD               	addwf	___lldiv@counter,f
  2882  05DC  2DCD               	goto	l1032
  2883  05DD                     l1034:	
  2884  05DD  3001               	movlw	1
  2885  05DE  00F8               	movwf	??___lldiv
  2886  05DF                     u515:	
  2887  05DF  1003               	clrc
  2888  05E0  0DF9               	rlf	___lldiv@quotient,f
  2889  05E1  0DFA               	rlf	___lldiv@quotient+1,f
  2890  05E2  0DFB               	rlf	___lldiv@quotient+2,f
  2891  05E3  0DFC               	rlf	___lldiv@quotient+3,f
  2892  05E4  0BF8               	decfsz	??___lldiv,f
  2893  05E5  2DDF               	goto	u515
  2894  05E6  0873               	movf	___lldiv@divisor+3,w
  2895  05E7  0277               	subwf	___lldiv@dividend+3,w
  2896  05E8  1D03               	skipz
  2897  05E9  2DF4               	goto	u525
  2898  05EA  0872               	movf	___lldiv@divisor+2,w
  2899  05EB  0276               	subwf	___lldiv@dividend+2,w
  2900  05EC  1D03               	skipz
  2901  05ED  2DF4               	goto	u525
  2902  05EE  0871               	movf	___lldiv@divisor+1,w
  2903  05EF  0275               	subwf	___lldiv@dividend+1,w
  2904  05F0  1D03               	skipz
  2905  05F1  2DF4               	goto	u525
  2906  05F2  0870               	movf	___lldiv@divisor,w
  2907  05F3  0274               	subwf	___lldiv@dividend,w
  2908  05F4                     u525:	
  2909  05F4  1C03               	skipc
  2910  05F5  2E05               	goto	l1042
  2911  05F6  0870               	movf	___lldiv@divisor,w
  2912  05F7  02F4               	subwf	___lldiv@dividend,f
  2913  05F8  0871               	movf	___lldiv@divisor+1,w
  2914  05F9  1C03               	skipc
  2915  05FA  0F71               	incfsz	___lldiv@divisor+1,w
  2916  05FB  02F5               	subwf	___lldiv@dividend+1,f
  2917  05FC  0872               	movf	___lldiv@divisor+2,w
  2918  05FD  1C03               	skipc
  2919  05FE  0F72               	incfsz	___lldiv@divisor+2,w
  2920  05FF  02F6               	subwf	___lldiv@dividend+2,f
  2921  0600  0873               	movf	___lldiv@divisor+3,w
  2922  0601  1C03               	skipc
  2923  0602  0F73               	incfsz	___lldiv@divisor+3,w
  2924  0603  02F7               	subwf	___lldiv@dividend+3,f
  2925  0604  1479               	bsf	___lldiv@quotient,0
  2926  0605                     l1042:	
  2927  0605  3001               	movlw	1
  2928  0606                     u535:	
  2929  0606  1003               	clrc
  2930  0607  0CF3               	rrf	___lldiv@divisor+3,f
  2931  0608  0CF2               	rrf	___lldiv@divisor+2,f
  2932  0609  0CF1               	rrf	___lldiv@divisor+1,f
  2933  060A  0CF0               	rrf	___lldiv@divisor,f
  2934  060B  3EFF               	addlw	-1
  2935  060C  1D03               	skipz
  2936  060D  2E06               	goto	u535
  2937  060E  3001               	movlw	1
  2938  060F  02FD               	subwf	___lldiv@counter,f
  2939  0610  1D03               	btfss	3,2
  2940  0611  2DDD               	goto	l1034
  2941  0612                     l1046:	
  2942  0612  087C               	movf	___lldiv@quotient+3,w
  2943  0613  00F3               	movwf	?___lldiv+3
  2944  0614  087B               	movf	___lldiv@quotient+2,w
  2945  0615  00F2               	movwf	?___lldiv+2
  2946  0616  087A               	movf	___lldiv@quotient+1,w
  2947  0617  00F1               	movwf	?___lldiv+1
  2948  0618  0879               	movf	___lldiv@quotient,w
  2949  0619  00F0               	movwf	?___lldiv
  2950  061A  0008               	return
  2951  061B                     __end_of___lldiv:	
  2952  007E                     btemp	set	126	;btemp
  2953  007E                     wtemp0	set	126


Data Sizes:
    Strings     5
    Constant    0
    Data        0
    BSS         10
    Persistent  0
    Stack       0

Auto Spaces:
    Space          Size  Autos    Used
    COMMON           14     14      14
    BANK0            80     35      45
    BANK1            80      0       0
    BANK3            96      0       0
    BANK2            96      0       0

Pointer List with Targets:

    lcd_putstr@csz_string	PTR const unsigned char  size(1) Largest target is 5
		 -> STR_1(CODE[5]), 


Critical Paths under _main in COMMON

    _main->_lcd_bcd
    _lcd_putstr->_lcd_putchar
    _lcd_2ndline->_send_lcd_data
    _lcd_initialize->_send_lcd_data
    _lcd_clear->_send_lcd_data
    _lcd_goto->_send_lcd_data
    _lcd_bcd->___lwdiv
    _lcd_putchar->_send_lcd_data
    _send_lcd_data->_set_lcd_data
    _send_lcd_data->_set_lcd_e
    _send_lcd_data->_set_lcd_rs
    _extGPIOAdir->_I2C_Master_Write
    _extGPIOA->_I2C_Master_Write
    _I2C_Master_Init->___lldiv

Critical Paths under _main in BANK0

    _main->_lcd_bcd

Critical Paths under _main in BANK1

    None.

Critical Paths under _main in BANK3

    None.

Critical Paths under _main in BANK2

    None.

Call Graph Tables:

 ---------------------------------------------------------------------------------
 (Depth) Function   	        Calls       Base Space   Used Autos Params    Refs
 ---------------------------------------------------------------------------------
 (0) _main                                                24    24      0    7513
                                             11 BANK0     24    24      0
                    _I2C_Master_Init
                   _I2C_Master_Start
                    _I2C_Master_Stop
                   _I2C_Master_Write
                            _InitApp
                           _extGPIOA
                        _extGPIOAdir
                            _lcd_bcd
                           _lcd_goto
                     _lcd_initialize
                         _lcd_putstr
 ---------------------------------------------------------------------------------
 (1) _lcd_putstr                                           2     2      0    1206
                                              7 COMMON     2     2      0
                        _lcd_2ndline
                        _lcd_putchar
 ---------------------------------------------------------------------------------
 (2) _lcd_2ndline                                          1     1      0     534
                                              5 COMMON     1     1      0
                      _send_lcd_data
 ---------------------------------------------------------------------------------
 (1) _lcd_initialize                                       2     2      0    1090
                                              5 COMMON     2     2      0
                          _lcd_clear
                      _send_lcd_data
                          _set_lcd_e
 ---------------------------------------------------------------------------------
 (2) _lcd_clear                                            0     0      0     534
                      _send_lcd_data
 ---------------------------------------------------------------------------------
 (1) _lcd_goto                                             2     2      0     556
                                              5 COMMON     2     2      0
                      _send_lcd_data
 ---------------------------------------------------------------------------------
 (1) _lcd_bcd                                             17    15      2    2243
                                              8 COMMON     6     4      2
                                              0 BANK0     11    11      0
                            ___lwdiv
                            ___lwmod
                        _lcd_putchar
 ---------------------------------------------------------------------------------
 (2) _lcd_putchar                                          2     2      0     556
                                              5 COMMON     2     2      0
                      _send_lcd_data
 ---------------------------------------------------------------------------------
 (3) _send_lcd_data                                        4     3      1     534
                                              1 COMMON     4     3      1
                       _set_lcd_data
                          _set_lcd_e
                         _set_lcd_rs
 ---------------------------------------------------------------------------------
 (4) _set_lcd_rs                                           1     1      0      22
                                              0 COMMON     1     1      0
 ---------------------------------------------------------------------------------
 (4) _set_lcd_e                                            1     1      0      22
                                              0 COMMON     1     1      0
 ---------------------------------------------------------------------------------
 (4) _set_lcd_data                                         1     1      0      22
                                              0 COMMON     1     1      0
 ---------------------------------------------------------------------------------
 (2) ___lwmod                                              6     2      4     583
                                              0 COMMON     6     2      4
 ---------------------------------------------------------------------------------
 (2) ___lwdiv                                              8     4      4     586
                                              0 COMMON     8     4      4
 ---------------------------------------------------------------------------------
 (1) _extGPIOAdir                                          2     0      2     574
                                              2 COMMON     2     0      2
                   _I2C_Master_Start
                    _I2C_Master_Stop
                   _I2C_Master_Write
 ---------------------------------------------------------------------------------
 (1) _extGPIOA                                             2     0      2     627
                                              2 COMMON     2     0      2
                   _I2C_Master_Start
                    _I2C_Master_Stop
                   _I2C_Master_Write
 ---------------------------------------------------------------------------------
 (2) _I2C_Master_Write                                     2     0      2     499
                                              0 COMMON     2     0      2
                    _I2C_Master_Wait
 ---------------------------------------------------------------------------------
 (2) _I2C_Master_Stop                                      0     0      0       0
                    _I2C_Master_Wait
 ---------------------------------------------------------------------------------
 (2) _I2C_Master_Start                                     0     0      0       0
                    _I2C_Master_Wait
 ---------------------------------------------------------------------------------
 (3) _I2C_Master_Wait                                      0     0      0       0
 ---------------------------------------------------------------------------------
 (1) _InitApp                                              0     0      0       0
 ---------------------------------------------------------------------------------
 (1) _I2C_Master_Init                                      8     4      4     343
                                              0 BANK0      8     4      4
                            ___lldiv
 ---------------------------------------------------------------------------------
 (2) ___lldiv                                             14     6      8     268
                                              0 COMMON    14     6      8
 ---------------------------------------------------------------------------------
 Estimated maximum stack depth 4
 ---------------------------------------------------------------------------------

 Call Graph Graphs:

 _main (ROOT)
   _I2C_Master_Init
     ___lldiv
   _I2C_Master_Start
     _I2C_Master_Wait
   _I2C_Master_Stop
     _I2C_Master_Wait
   _I2C_Master_Write
     _I2C_Master_Wait
   _InitApp
   _extGPIOA
     _I2C_Master_Start
       _I2C_Master_Wait
     _I2C_Master_Stop
       _I2C_Master_Wait
     _I2C_Master_Write
       _I2C_Master_Wait
   _extGPIOAdir
     _I2C_Master_Start
       _I2C_Master_Wait
     _I2C_Master_Stop
       _I2C_Master_Wait
     _I2C_Master_Write
       _I2C_Master_Wait
   _lcd_bcd
     ___lwdiv
     ___lwmod
     _lcd_putchar
       _send_lcd_data
         _set_lcd_data
         _set_lcd_e
         _set_lcd_rs
   _lcd_goto
     _send_lcd_data
       _set_lcd_data
       _set_lcd_e
       _set_lcd_rs
   _lcd_initialize
     _lcd_clear
       _send_lcd_data
         _set_lcd_data
         _set_lcd_e
         _set_lcd_rs
     _send_lcd_data
       _set_lcd_data
       _set_lcd_e
       _set_lcd_rs
     _set_lcd_e
   _lcd_putstr
     _lcd_2ndline
       _send_lcd_data
         _set_lcd_data
         _set_lcd_e
         _set_lcd_rs
     _lcd_putchar
       _send_lcd_data
         _set_lcd_data
         _set_lcd_e
         _set_lcd_rs

 Address spaces:
Name               Size   Autos  Total    Cost      Usage
BITCOMMON            E      0       0       0        0.0%
EEDATA             100      0       0       0        0.0%
NULL                 0      0       0       0        0.0%
CODE                 0      0       0       0        0.0%
COMMON               E      E       E       1      100.0%
BITSFR0              0      0       0       1        0.0%
SFR0                 0      0       0       1        0.0%
BITSFR1              0      0       0       2        0.0%
SFR1                 0      0       0       2        0.0%
STACK                0      0       0       2        0.0%
ABS                  0      0      3B       3        0.0%
BITBANK0            50      0       0       4        0.0%
BITSFR3              0      0       0       4        0.0%
SFR3                 0      0       0       4        0.0%
BANK0               50     23      2D       5       56.3%
BITSFR2              0      0       0       5        0.0%
SFR2                 0      0       0       5        0.0%
BITBANK1            50      0       0       6        0.0%
BANK1               50      0       0       7        0.0%
BITBANK3            60      0       0       8        0.0%
BANK3               60      0       0       9        0.0%
BITBANK2            60      0       0      10        0.0%
BANK2               60      0       0      11        0.0%
DATA                 0      0      3B      12        0.0%


Microchip Technology PIC Macro Assembler V1.45 build -152302408 
Symbol Table                                                                                   Sun May 06 19:04:31 2018

                        pc 0002               ?_lcd_putchar 0070                __CFG_CP$OFF 0000  
                       fsr 0004               ?_extGPIOAdir 0072                        l196 03F9  
                      _RB4 0034                        _RB5 0035                        u420 041C  
                      u440 0427                        _PEN 048A               __CFG_CPD$OFF 0000  
                      u515 05DF                        u525 05F4                        u605 05AE  
                      u535 0606                        u720 0626                        u635 04B7  
                      _SEN 0488                        u565 058C                        u495 05D1  
                      u655 04C8                        u585 0598                        u665 04D1  
                      u595 05A4                        u827 078C                        u685 0527  
                      u837 07C2                        u765 0772                        u847 0487  
                      u775 07A2                        u857 04F7                        u867 0505  
                      fsr0 0004                        indf 0000               __CFG_FOSC$HS 0000  
        set_lcd_e@b_output 0070               __CFG_LVP$OFF 0000                       l1032 05CD  
                     l1042 0605                       l1034 05DD                       l1060 0589  
                     l1140 054C                       l1046 0612                       l1062 0597  
                     l1134 056A                       l1230 0774                       l1222 075F  
                     l1072 05B8                       l1136 0570                       l1090 04D0  
                     l1138 057C                       l1068 05AD                       l1084 04B4  
                     l1164 06D3                       l1252 07D1                       l1244 07AC  
                     l1086 04C2                       l1094 04DB                       l1238 07A4  
                     _ADFM 04FF                       _ADON 00F8                       _CHS0 00FB  
                     _CHS1 00FC                       _CHS2 00FD                       STR_1 0009  
                     _RCEN 048B                       _RSEN 0489               __CFG_WRT$OFF 0000  
                     _main 06E9                       btemp 007E              __CFG_BOREN$ON 0000  
                     start 0000            __end_of_InitApp 03D6           ?_I2C_Master_Init 0020  
         ?_I2C_Master_Wait 0070           ?_I2C_Master_Stop 0070                      _ADCS0 00FE  
                    _ADCS1 00FF                      ?_main 0070                      _ACKEN 048C  
                    _ACKDT 048D              __CFG_WDTE$OFF 0000            __end_of___lldiv 061B  
                    _PCFG0 04F8                      _PCFG1 04F9                      _PCFG2 04FA  
                    _PCFG3 04FB            __end_of___lwdiv 05BD            __end_of___lwmod 04E0  
                    _PORTA 0005                      _PORTB 0006                      _PORTD 0008  
                    _TRISA 0085                      _TRISB 0086                      _TRISD 0088  
     send_lcd_data@uc_data 0071              __CFG_PWRTE$ON 0000            __end_of_lcd_bcd 06E9  
                    main@i 003F                      pclath 000A                      status 0003  
                    wtemp0 007E               extGPIOAdir@a 0072            __initialization 07F0  
        send_lcd_data@b_rs 0074               __end_of_main 07F0       __size_of_lcd_2ndline 0009  
    __end_of_send_lcd_data 0515                     ??_main 002B          ?_I2C_Master_Start 0070  
        ?_I2C_Master_Write 0070         ??_I2C_Master_Start 0070         ??_I2C_Master_Write 0072  
                   _ADRESH 001E                     _ADRESL 009E                     _SSPADD 0093  
                   _TRISC3 043B                     _TRISC4 043C                     _SSPCON 0014  
                   _SSPBUF 0013                  ??_InitApp 0070           __end_of_lcd_goto 0436  
         __end_of_extGPIOA 047D                  ??___lldiv 0078                  ??___lwdiv 0074  
                ??___lwmod 0074                  ??_lcd_bcd 007A       __size_of_lcd_putchar 000A  
     __size_of_extGPIOAdir 0023           ??_lcd_initialize 0075    __end_of__initialization 07FC  
           __pcstackCOMMON 0070         __size_of_lcd_clear 0007                 __pbssBANK0 0043  
               __pmaintext 06E9         __size_of_set_lcd_e 000B                    _SSPCON2 0091  
               _lcd_putstr 054B                  ?_lcd_goto 0070                    _SSPSTAT 0094  
                ?_extGPIOA 0072                 __stringtab 0003              ?_set_lcd_data 0070  
                  _InitApp 03D5          __end_of_lcd_clear 03F1                    ___lldiv 05BD  
                  ___lwdiv 0581                    ___lwmod 04AE                    __ptext1 054B  
                  __ptext2 0402                    __ptext3 047D                    __ptext4 03EA  
                  __ptext5 042B                    __ptext6 061B                    __ptext7 040B  
                  __ptext8 04E0                    __ptext9 0420                    _lcd_bcd 061B  
 __size_of_I2C_Master_Init 0036   __size_of_I2C_Master_Wait 0009   __size_of_I2C_Master_Stop 0007  
                  main@add 003D                 ??_lcd_goto 0075                 ??_extGPIOA 0074  
     end_of_initialization 07FC          lcd_bcd@ui_decimal 0020             ??_set_lcd_data 0070  
        __end_of_set_lcd_e 0420  __size_of_I2C_Master_Start 0007  __size_of_I2C_Master_Write 0008  
          ___lldiv@divisor 0070            ___lldiv@counter 007D                 _set_lcd_rs 0420  
            ??_lcd_2ndline 0075           I2C_Master_Init@c 0020                ?_lcd_putstr 0070  
   __size_of_send_lcd_data 0035              ??_lcd_putchar 0075              ??_extGPIOAdir 0074  
        lcd_putchar@c_data 0076        __end_of_lcd_2ndline 040B        start_initialization 07F0  
       set_lcd_rs@b_output 0070       lcd_putstr@csz_string 0078        lcd_goto@uc_position 0076  
        ??_I2C_Master_Init 0024          ??_I2C_Master_Wait 0070          ??_I2C_Master_Stop 0070  
              ?_set_lcd_rs 0070        __size_of_lcd_putstr 0036              _send_lcd_data 04E0  
     __end_of_set_lcd_data 03DC        __end_of_lcd_putchar 0415                  ___latbits 0002  
      __end_of_extGPIOAdir 0459              __pcstackBANK0 0020          __size_of_lcd_goto 000B  
        __size_of_extGPIOA 0024                   ?_InitApp 0070           _I2C_Master_Start 03DC  
         _I2C_Master_Write 03F1    __size_of_lcd_initialize 0031           ___lwdiv@dividend 0072  
              _lcd_2ndline 0402                   ?___lldiv 0070                   ?___lwdiv 0070  
                 ?___lwmod 0070                  _lcd_clear 03EA             ?_send_lcd_data 0071  
                __pstrings 0003                   ?_lcd_bcd 0078        __size_of_set_lcd_rs 000B  
         ___lwdiv@quotient 0075        set_lcd_data@uc_data 0070                  _set_lcd_e 0415  
                 _GO_nDONE 00FA           lcd_bcd@ui_number 0078                _lcd_putchar 040B  
               ?_lcd_clear 0070                _extGPIOAdir 0436                  main@Array 002D  
              __stringbase 0008                  extGPIOA@a 0072               ??_lcd_putstr 0077  
         __size_of_InitApp 0001                 ?_set_lcd_e 0070      __size_of_set_lcd_data 0006  
          ??_send_lcd_data 0072           __size_of___lldiv 005E           __size_of___lwdiv 003C  
       __end_of_lcd_putstr 0581           __size_of___lwmod 0032         __end_of__stringtab 0009  
         __size_of_lcd_bcd 00CE            _I2C_Master_Init 0515            _I2C_Master_Wait 03F9  
          _I2C_Master_Stop 03E3            ___lwdiv@divisor 0070            ___lwdiv@counter 0077  
                 __ptext10 0415                   __ptext11 03D6                   __ptext20 03D5  
                 __ptext12 04AE                   __ptext21 0515                   __ptext13 0581  
                 __ptext22 05BD                   __ptext14 0436                   __ptext15 0459  
                 __ptext16 03F1                   __ptext17 03E3                   __ptext18 03DC  
                 __ptext19 03F9                   _lcd_goto 042B                   _extGPIOA 0459  
            __size_of_main 0107            lcd_bcd@uc_digit 002A               _set_lcd_data 03D6  
           _lcd_initialize 047D               ??_set_lcd_rs 0070                   main@i_87 0041  
              ??_lcd_clear 0075   __end_of_I2C_Master_Start 03E3   __end_of_I2C_Master_Write 03F9  
       __end_of_set_lcd_rs 042B           ___lwmod@dividend 0072     __end_of_lcd_initialize 04AE  
         ___lldiv@dividend 0074                  stringcode 0003                ??_set_lcd_e 0070  
             ?_lcd_2ndline 0070    __end_of_I2C_Master_Init 054B    __end_of_I2C_Master_Wait 0402  
  __end_of_I2C_Master_Stop 03EA               lcd_bcd@F1134 0043           ___lldiv@quotient 0079  
        I2C_Master_Write@d 0070            ___lwmod@divisor 0070            ___lwmod@counter 0075  
                 stringdir 0003                   stringtab 0003            ?_lcd_initialize 0070  
