

Microchip Technology PIC LITE Macro Assembler V1.45 build -152302408 
                                                                                               Sun Dec 31 17:57:43 2017

Microchip Technology Omniscient Code Generator v1.45 (Free mode) build 201711160504
     1                           	processor	16F877A
     2                           	opt	pw 120
     3                           	opt	lm
     4                           	psect	strings,global,class=STRING,delta=2
     5                           	psect	cinit,global,class=CODE,merge=1,delta=2
     6                           	psect	bssBANK0,global,class=BANK0,space=1,delta=1
     7                           	psect	cstackCOMMON,global,class=COMMON,space=1,delta=1
     8                           	psect	cstackBANK0,global,class=BANK0,space=1,delta=1
     9                           	psect	maintext,global,class=CODE,split=1,delta=2
    10                           	psect	text1,local,class=CODE,merge=1,delta=2
    11                           	psect	text2,local,class=CODE,merge=1,delta=2
    12                           	psect	text3,local,class=CODE,merge=1,delta=2
    13                           	psect	text4,local,class=CODE,merge=1,delta=2
    14                           	psect	text5,local,class=CODE,merge=1,delta=2
    15                           	psect	text6,local,class=CODE,merge=1,delta=2
    16                           	psect	text7,local,class=CODE,merge=1,delta=2
    17                           	psect	text8,local,class=CODE,merge=1,delta=2
    18                           	psect	text9,local,class=CODE,merge=1,delta=2
    19                           	psect	text10,local,class=CODE,merge=1,delta=2
    20                           	psect	text11,local,class=CODE,merge=1,delta=2
    21                           	psect	text12,local,class=CODE,merge=1,delta=2
    22                           	psect	text13,local,class=CODE,merge=1,delta=2
    23                           	psect	intentry,global,class=CODE,delta=2
    24                           	dabs	1,0x7E,2
    25  0000                     
    26                           ; Version 1.45
    27                           ; Generated 16/11/2017 GMT
    28                           ; 
    29                           ; Copyright © 2017, Microchip Technology Inc. and its subsidiaries ("Microchip")
    30                           ; All rights reserved.
    31                           ; 
    32                           ; This software is developed by Microchip Technology Inc. and its subsidiaries ("Microch
      +                          ip").
    33                           ; 
    34                           ; Redistribution and use in source and binary forms, with or without modification, are
    35                           ; permitted provided that the following conditions are met:
    36                           ; 
    37                           ;     1. Redistributions of source code must retain the above copyright notice, this lis
      +                          t of
    38                           ;        conditions and the following disclaimer.
    39                           ; 
    40                           ;     2. Redistributions in binary form must reproduce the above copyright notice, this 
      +                          list
    41                           ;        of conditions and the following disclaimer in the documentation and/or other
    42                           ;        materials provided with the distribution.
    43                           ; 
    44                           ;     3. Microchip's name may not be used to endorse or promote products derived from th
      +                          is
    45                           ;        software without specific prior written permission.
    46                           ; 
    47                           ; THIS SOFTWARE IS PROVIDED BY MICROCHIP "AS IS" AND ANY EXPRESS OR IMPLIED WARRANTIES,
    48                           ; INCLUDING, BUT NOT LIMITED TO, THE IMPLIED WARRANTIES OF MERCHANTABILITY AND FITNESS F
      +                          OR
    49                           ; PURPOSE ARE DISCLAIMED.  IN NO EVENT SHALL MICROCHIP BE LIABLE FOR ANY DIRECT, INDIREC
      +                          T,
    50                           ; INCIDENTAL, SPECIAL, EXEMPLARY, OR CONSEQUENTIAL DAMAGES (INCLUDING BUT NOT LIMITED TO
    51                           ; PROCUREMENT OF SUBSTITUTE GOODS OR SERVICES; LOSS OF USE, DATA OR PROFITS; OR BUSINESS
    52                           ; INTERRUPTION) HOWSOEVER CAUSED AND ON ANY THEORY OF LIABILITY, WHETHER IN CONTRACT, ST
      +                          RICT
    53                           ; LIABILITY, OR TORT (INCLUDING NEGLIGENCE OR OTHERWISE) ARISING IN ANY WAY OUT OF THE U
      +                          SE OF
    54                           ; THIS SOFTWARE, EVEN IF ADVISED OF THE POSSIBILITY OF SUCH DAMAGE.
    55                           ; 
    56                           ; 
    57                           ; Code-generator required, PIC16F877A Definitions
    58                           ; 
    59                           ; SFR Addresses
    60  0000                     	;# 
    61  0001                     	;# 
    62  0002                     	;# 
    63  0003                     	;# 
    64  0004                     	;# 
    65  0005                     	;# 
    66  0006                     	;# 
    67  0007                     	;# 
    68  0008                     	;# 
    69  0009                     	;# 
    70  000A                     	;# 
    71  000B                     	;# 
    72  000C                     	;# 
    73  000D                     	;# 
    74  000E                     	;# 
    75  000E                     	;# 
    76  000F                     	;# 
    77  0010                     	;# 
    78  0011                     	;# 
    79  0012                     	;# 
    80  0013                     	;# 
    81  0014                     	;# 
    82  0015                     	;# 
    83  0015                     	;# 
    84  0016                     	;# 
    85  0017                     	;# 
    86  0018                     	;# 
    87  0019                     	;# 
    88  001A                     	;# 
    89  001B                     	;# 
    90  001B                     	;# 
    91  001C                     	;# 
    92  001D                     	;# 
    93  001E                     	;# 
    94  001F                     	;# 
    95  0081                     	;# 
    96  0085                     	;# 
    97  0086                     	;# 
    98  0087                     	;# 
    99  0088                     	;# 
   100  0089                     	;# 
   101  008C                     	;# 
   102  008D                     	;# 
   103  008E                     	;# 
   104  0091                     	;# 
   105  0092                     	;# 
   106  0093                     	;# 
   107  0094                     	;# 
   108  0098                     	;# 
   109  0099                     	;# 
   110  009C                     	;# 
   111  009D                     	;# 
   112  009E                     	;# 
   113  009F                     	;# 
   114  010C                     	;# 
   115  010D                     	;# 
   116  010E                     	;# 
   117  010F                     	;# 
   118  018C                     	;# 
   119  018D                     	;# 
   120  0000                     	;# 
   121  0001                     	;# 
   122  0002                     	;# 
   123  0003                     	;# 
   124  0004                     	;# 
   125  0005                     	;# 
   126  0006                     	;# 
   127  0007                     	;# 
   128  0008                     	;# 
   129  0009                     	;# 
   130  000A                     	;# 
   131  000B                     	;# 
   132  000C                     	;# 
   133  000D                     	;# 
   134  000E                     	;# 
   135  000E                     	;# 
   136  000F                     	;# 
   137  0010                     	;# 
   138  0011                     	;# 
   139  0012                     	;# 
   140  0013                     	;# 
   141  0014                     	;# 
   142  0015                     	;# 
   143  0015                     	;# 
   144  0016                     	;# 
   145  0017                     	;# 
   146  0018                     	;# 
   147  0019                     	;# 
   148  001A                     	;# 
   149  001B                     	;# 
   150  001B                     	;# 
   151  001C                     	;# 
   152  001D                     	;# 
   153  001E                     	;# 
   154  001F                     	;# 
   155  0081                     	;# 
   156  0085                     	;# 
   157  0086                     	;# 
   158  0087                     	;# 
   159  0088                     	;# 
   160  0089                     	;# 
   161  008C                     	;# 
   162  008D                     	;# 
   163  008E                     	;# 
   164  0091                     	;# 
   165  0092                     	;# 
   166  0093                     	;# 
   167  0094                     	;# 
   168  0098                     	;# 
   169  0099                     	;# 
   170  009C                     	;# 
   171  009D                     	;# 
   172  009E                     	;# 
   173  009F                     	;# 
   174  010C                     	;# 
   175  010D                     	;# 
   176  010E                     	;# 
   177  010F                     	;# 
   178  018C                     	;# 
   179  018D                     	;# 
   180  0000                     	;# 
   181  0001                     	;# 
   182  0002                     	;# 
   183  0003                     	;# 
   184  0004                     	;# 
   185  0005                     	;# 
   186  0006                     	;# 
   187  0007                     	;# 
   188  0008                     	;# 
   189  0009                     	;# 
   190  000A                     	;# 
   191  000B                     	;# 
   192  000C                     	;# 
   193  000D                     	;# 
   194  000E                     	;# 
   195  000E                     	;# 
   196  000F                     	;# 
   197  0010                     	;# 
   198  0011                     	;# 
   199  0012                     	;# 
   200  0013                     	;# 
   201  0014                     	;# 
   202  0015                     	;# 
   203  0015                     	;# 
   204  0016                     	;# 
   205  0017                     	;# 
   206  0018                     	;# 
   207  0019                     	;# 
   208  001A                     	;# 
   209  001B                     	;# 
   210  001B                     	;# 
   211  001C                     	;# 
   212  001D                     	;# 
   213  001E                     	;# 
   214  001F                     	;# 
   215  0081                     	;# 
   216  0085                     	;# 
   217  0086                     	;# 
   218  0087                     	;# 
   219  0088                     	;# 
   220  0089                     	;# 
   221  008C                     	;# 
   222  008D                     	;# 
   223  008E                     	;# 
   224  0091                     	;# 
   225  0092                     	;# 
   226  0093                     	;# 
   227  0094                     	;# 
   228  0098                     	;# 
   229  0099                     	;# 
   230  009C                     	;# 
   231  009D                     	;# 
   232  009E                     	;# 
   233  009F                     	;# 
   234  010C                     	;# 
   235  010D                     	;# 
   236  010E                     	;# 
   237  010F                     	;# 
   238  018C                     	;# 
   239  018D                     	;# 
   240  0000                     	;# 
   241  0001                     	;# 
   242  0002                     	;# 
   243  0003                     	;# 
   244  0004                     	;# 
   245  0005                     	;# 
   246  0006                     	;# 
   247  0007                     	;# 
   248  0008                     	;# 
   249  0009                     	;# 
   250  000A                     	;# 
   251  000B                     	;# 
   252  000C                     	;# 
   253  000D                     	;# 
   254  000E                     	;# 
   255  000E                     	;# 
   256  000F                     	;# 
   257  0010                     	;# 
   258  0011                     	;# 
   259  0012                     	;# 
   260  0013                     	;# 
   261  0014                     	;# 
   262  0015                     	;# 
   263  0015                     	;# 
   264  0016                     	;# 
   265  0017                     	;# 
   266  0018                     	;# 
   267  0019                     	;# 
   268  001A                     	;# 
   269  001B                     	;# 
   270  001B                     	;# 
   271  001C                     	;# 
   272  001D                     	;# 
   273  001E                     	;# 
   274  001F                     	;# 
   275  0081                     	;# 
   276  0085                     	;# 
   277  0086                     	;# 
   278  0087                     	;# 
   279  0088                     	;# 
   280  0089                     	;# 
   281  008C                     	;# 
   282  008D                     	;# 
   283  008E                     	;# 
   284  0091                     	;# 
   285  0092                     	;# 
   286  0093                     	;# 
   287  0094                     	;# 
   288  0098                     	;# 
   289  0099                     	;# 
   290  009C                     	;# 
   291  009D                     	;# 
   292  009E                     	;# 
   293  009F                     	;# 
   294  010C                     	;# 
   295  010D                     	;# 
   296  010E                     	;# 
   297  010F                     	;# 
   298  018C                     	;# 
   299  018D                     	;# 
   300  0000                     	;# 
   301  0001                     	;# 
   302  0002                     	;# 
   303  0003                     	;# 
   304  0004                     	;# 
   305  0005                     	;# 
   306  0006                     	;# 
   307  0007                     	;# 
   308  0008                     	;# 
   309  0009                     	;# 
   310  000A                     	;# 
   311  000B                     	;# 
   312  000C                     	;# 
   313  000D                     	;# 
   314  000E                     	;# 
   315  000E                     	;# 
   316  000F                     	;# 
   317  0010                     	;# 
   318  0011                     	;# 
   319  0012                     	;# 
   320  0013                     	;# 
   321  0014                     	;# 
   322  0015                     	;# 
   323  0015                     	;# 
   324  0016                     	;# 
   325  0017                     	;# 
   326  0018                     	;# 
   327  0019                     	;# 
   328  001A                     	;# 
   329  001B                     	;# 
   330  001B                     	;# 
   331  001C                     	;# 
   332  001D                     	;# 
   333  001E                     	;# 
   334  001F                     	;# 
   335  0081                     	;# 
   336  0085                     	;# 
   337  0086                     	;# 
   338  0087                     	;# 
   339  0088                     	;# 
   340  0089                     	;# 
   341  008C                     	;# 
   342  008D                     	;# 
   343  008E                     	;# 
   344  0091                     	;# 
   345  0092                     	;# 
   346  0093                     	;# 
   347  0094                     	;# 
   348  0098                     	;# 
   349  0099                     	;# 
   350  009C                     	;# 
   351  009D                     	;# 
   352  009E                     	;# 
   353  009F                     	;# 
   354  010C                     	;# 
   355  010D                     	;# 
   356  010E                     	;# 
   357  010F                     	;# 
   358  018C                     	;# 
   359  018D                     	;# 
   360  0000                     	;# 
   361  0001                     	;# 
   362  0002                     	;# 
   363  0003                     	;# 
   364  0004                     	;# 
   365  0005                     	;# 
   366  0006                     	;# 
   367  0007                     	;# 
   368  0008                     	;# 
   369  0009                     	;# 
   370  000A                     	;# 
   371  000B                     	;# 
   372  000C                     	;# 
   373  000D                     	;# 
   374  000E                     	;# 
   375  000E                     	;# 
   376  000F                     	;# 
   377  0010                     	;# 
   378  0011                     	;# 
   379  0012                     	;# 
   380  0013                     	;# 
   381  0014                     	;# 
   382  0015                     	;# 
   383  0015                     	;# 
   384  0016                     	;# 
   385  0017                     	;# 
   386  0018                     	;# 
   387  0019                     	;# 
   388  001A                     	;# 
   389  001B                     	;# 
   390  001B                     	;# 
   391  001C                     	;# 
   392  001D                     	;# 
   393  001E                     	;# 
   394  001F                     	;# 
   395  0081                     	;# 
   396  0085                     	;# 
   397  0086                     	;# 
   398  0087                     	;# 
   399  0088                     	;# 
   400  0089                     	;# 
   401  008C                     	;# 
   402  008D                     	;# 
   403  008E                     	;# 
   404  0091                     	;# 
   405  0092                     	;# 
   406  0093                     	;# 
   407  0094                     	;# 
   408  0098                     	;# 
   409  0099                     	;# 
   410  009C                     	;# 
   411  009D                     	;# 
   412  009E                     	;# 
   413  009F                     	;# 
   414  010C                     	;# 
   415  010D                     	;# 
   416  010E                     	;# 
   417  010F                     	;# 
   418  018C                     	;# 
   419  018D                     	;# 
   420  0000                     	;# 
   421  0001                     	;# 
   422  0002                     	;# 
   423  0003                     	;# 
   424  0004                     	;# 
   425  0005                     	;# 
   426  0006                     	;# 
   427  0007                     	;# 
   428  0008                     	;# 
   429  0009                     	;# 
   430  000A                     	;# 
   431  000B                     	;# 
   432  000C                     	;# 
   433  000D                     	;# 
   434  000E                     	;# 
   435  000E                     	;# 
   436  000F                     	;# 
   437  0010                     	;# 
   438  0011                     	;# 
   439  0012                     	;# 
   440  0013                     	;# 
   441  0014                     	;# 
   442  0015                     	;# 
   443  0015                     	;# 
   444  0016                     	;# 
   445  0017                     	;# 
   446  0018                     	;# 
   447  0019                     	;# 
   448  001A                     	;# 
   449  001B                     	;# 
   450  001B                     	;# 
   451  001C                     	;# 
   452  001D                     	;# 
   453  001E                     	;# 
   454  001F                     	;# 
   455  0081                     	;# 
   456  0085                     	;# 
   457  0086                     	;# 
   458  0087                     	;# 
   459  0088                     	;# 
   460  0089                     	;# 
   461  008C                     	;# 
   462  008D                     	;# 
   463  008E                     	;# 
   464  0091                     	;# 
   465  0092                     	;# 
   466  0093                     	;# 
   467  0094                     	;# 
   468  0098                     	;# 
   469  0099                     	;# 
   470  009C                     	;# 
   471  009D                     	;# 
   472  009E                     	;# 
   473  009F                     	;# 
   474  010C                     	;# 
   475  010D                     	;# 
   476  010E                     	;# 
   477  010F                     	;# 
   478  018C                     	;# 
   479  018D                     	;# 
   480  001E                     _ADRESH	set	30
   481  0008                     _PORTD	set	8
   482  0007                     _PORTC	set	7
   483  0006                     _PORTB	set	6
   484  0005                     _PORTA	set	5
   485  0034                     _RB4	set	52
   486  0035                     _RB5	set	53
   487  00FA                     _GO_nDONE	set	250
   488  00FB                     _CHS0	set	251
   489  00FC                     _CHS1	set	252
   490  00FD                     _CHS2	set	253
   491  00F8                     _ADON	set	248
   492  00FE                     _ADCS0	set	254
   493  00FF                     _ADCS1	set	255
   494  0036                     _RB6	set	54
   495  009E                     _ADRESL	set	158
   496  0088                     _TRISD	set	136
   497  0087                     _TRISC	set	135
   498  0086                     _TRISB	set	134
   499  0085                     _TRISA	set	133
   500  04F8                     _PCFG0	set	1272
   501  04F9                     _PCFG1	set	1273
   502  04FA                     _PCFG2	set	1274
   503  04FB                     _PCFG3	set	1275
   504  04FF                     _ADFM	set	1279
   505                           
   506                           	psect	strings
   507  0115                     __pstrings:	
   508  0115                     stringtab:	
   509  0115                     __stringtab:	
   510  0115                     stringcode:	
   511                           ;	String table - string pointers are 1 byte each
   512                           
   513  0115                     stringdir:	
   514  0115  3001               	movlw	high stringdir
   515  0116  008A               	movwf	10
   516  0117  0804               	movf	4,w
   517  0118  0A84               	incf	4,f
   518  0119  0782               	addwf	2,f
   519  011A                     __stringbase:	
   520  011A  3400               	retlw	0
   521  011B                     __end_of__stringtab:	
   522  011B                     STR_1:	
   523  011B  3468               	retlw	104	;'h'
   524  011C  3461               	retlw	97	;'a'
   525  011D  3474               	retlw	116	;'t'
   526  011E  3469               	retlw	105	;'i'
   527  011F  3400               	retlw	0
   528                           
   529                           ; #config settings
   530  0000                     
   531                           	psect	cinit
   532  0015                     start_initialization:	
   533  0015                     __initialization:	
   534                           
   535                           ; Clear objects allocated to BANK0
   536  0015  1283               	bcf	3,5	;RP0=0, select bank0
   537  0016  1303               	bcf	3,6	;RP1=0, select bank0
   538  0017  01A0               	clrf	__pbssBANK0& (0+127)
   539  0018  01A1               	clrf	(__pbssBANK0+1)& (0+127)
   540  0019  01A2               	clrf	(__pbssBANK0+2)& (0+127)
   541  001A  01A3               	clrf	(__pbssBANK0+3)& (0+127)
   542  001B  01A4               	clrf	(__pbssBANK0+4)& (0+127)
   543  001C  01A5               	clrf	(__pbssBANK0+5)& (0+127)
   544  001D  01A6               	clrf	(__pbssBANK0+6)& (0+127)
   545  001E  01A7               	clrf	(__pbssBANK0+7)& (0+127)
   546  001F  01A8               	clrf	(__pbssBANK0+8)& (0+127)
   547  0020  01A9               	clrf	(__pbssBANK0+9)& (0+127)
   548  0021                     end_of_initialization:	
   549                           ;End of C runtime variable initialization code
   550                           
   551  0021                     __end_of__initialization:	
   552  0021  0183               	clrf	3
   553  0022  120A  118A  28CE   	ljmp	_main	;jump to C main() function
   554                           
   555                           	psect	bssBANK0
   556  0020                     __pbssBANK0:	
   557  0020                     lcd_bcd@F1134:	
   558  0020                     	ds	10
   559                           
   560                           	psect	cstackCOMMON
   561  0070                     __pcstackCOMMON:	
   562  0070                     ?_InitApp:	
   563  0070                     ?_lcd_initialize:	
   564                           ; 1 bytes @ 0x0
   565                           
   566  0070                     ?_adc_initialize:	
   567                           ; 1 bytes @ 0x0
   568                           
   569  0070                     ?_lcd_home:	
   570                           ; 1 bytes @ 0x0
   571                           
   572  0070                     ?_lcd_putstr:	
   573                           ; 1 bytes @ 0x0
   574                           
   575  0070                     ?_set_lcd_e:	
   576                           ; 1 bytes @ 0x0
   577                           
   578  0070                     ?_lcd_clear:	
   579                           ; 1 bytes @ 0x0
   580                           
   581  0070                     ?_set_lcd_rs:	
   582                           ; 1 bytes @ 0x0
   583                           
   584  0070                     ?_set_lcd_data:	
   585                           ; 1 bytes @ 0x0
   586                           
   587  0070                     ?_isr:	
   588                           ; 1 bytes @ 0x0
   589                           
   590  0070                     ??_isr:	
   591                           ; 1 bytes @ 0x0
   592                           
   593  0070                     ?_main:	
   594                           ; 1 bytes @ 0x0
   595                           
   596  0070                     ?_lcd_2ndline:	
   597                           ; 1 bytes @ 0x0
   598                           
   599  0070                     ?_lcd_putchar:	
   600                           ; 1 bytes @ 0x0
   601                           
   602                           
   603                           ; 1 bytes @ 0x0
   604  0070                     	ds	4
   605  0074                     ??_InitApp:	
   606  0074                     ??_adc_initialize:	
   607                           ; 1 bytes @ 0x4
   608                           
   609  0074                     ??_set_lcd_e:	
   610                           ; 1 bytes @ 0x4
   611                           
   612  0074                     ??_set_lcd_rs:	
   613                           ; 1 bytes @ 0x4
   614                           
   615  0074                     ??_set_lcd_data:	
   616                           ; 1 bytes @ 0x4
   617                           
   618  0074                     set_lcd_e@b_output:	
   619                           ; 1 bytes @ 0x4
   620                           
   621  0074                     set_lcd_rs@b_output:	
   622                           ; 1 bytes @ 0x4
   623                           
   624  0074                     set_lcd_data@uc_data:	
   625                           ; 1 bytes @ 0x4
   626                           
   627                           
   628                           ; 1 bytes @ 0x4
   629  0074                     	ds	1
   630  0075                     ?_send_lcd_data:	
   631  0075                     send_lcd_data@uc_data:	
   632                           ; 1 bytes @ 0x5
   633                           
   634                           
   635                           ; 1 bytes @ 0x5
   636  0075                     	ds	1
   637  0076                     ??_send_lcd_data:	
   638                           
   639                           ; 1 bytes @ 0x6
   640  0076                     	ds	2
   641  0078                     send_lcd_data@b_rs:	
   642                           
   643                           ; 1 bytes @ 0x8
   644  0078                     	ds	1
   645  0079                     ??_lcd_home:	
   646  0079                     ??_lcd_clear:	
   647                           ; 1 bytes @ 0x9
   648                           
   649  0079                     ??_lcd_2ndline:	
   650                           ; 1 bytes @ 0x9
   651                           
   652  0079                     ??_lcd_putchar:	
   653                           ; 1 bytes @ 0x9
   654                           
   655                           
   656                           ; 1 bytes @ 0x9
   657  0079                     	ds	1
   658  007A                     ??_main:	
   659                           
   660                           	psect	cstackBANK0
   661  002A                     __pcstackBANK0:	
   662                           ; 1 bytes @ 0xA
   663                           
   664  002A                     ??_lcd_initialize:	
   665  002A                     lcd_putchar@c_data:	
   666                           ; 1 bytes @ 0x0
   667                           
   668                           
   669                           ; 1 bytes @ 0x0
   670  002A                     	ds	1
   671  002B                     ??_lcd_putstr:	
   672                           
   673                           ; 1 bytes @ 0x1
   674  002B                     	ds	1
   675  002C                     lcd_putstr@csz_string:	
   676                           
   677                           ; 1 bytes @ 0x2
   678  002C                     	ds	1
   679                           
   680                           	psect	maintext
   681  00CE                     __pmaintext:	
   682 ;;
   683 ;;Main: autosize = 0, tempsize = 0, incstack = 0, save=0
   684 ;;
   685 ;; *************** function _main *****************
   686 ;; Defined at:
   687 ;;		line 20 in file "main.c"
   688 ;; Parameters:    Size  Location     Type
   689 ;;		None
   690 ;; Auto vars:     Size  Location     Type
   691 ;;		None
   692 ;; Return value:  Size  Location     Type
   693 ;;                  1    wreg      void 
   694 ;; Registers used:
   695 ;;		wreg, fsr0l, fsr0h, status,2, status,0, pclath, cstack
   696 ;; Tracked objects:
   697 ;;		On entry : B00/0
   698 ;;		On exit  : 0/0
   699 ;;		Unchanged: 0/0
   700 ;; Data sizes:     COMMON   BANK0   BANK1   BANK3   BANK2
   701 ;;      Params:         0       0       0       0       0
   702 ;;      Locals:         0       0       0       0       0
   703 ;;      Temps:          0       0       0       0       0
   704 ;;      Totals:         0       0       0       0       0
   705 ;;Total ram usage:        0 bytes
   706 ;; Hardware stack levels required when called:    5
   707 ;; This function calls:
   708 ;;		_InitApp
   709 ;;		_adc_initialize
   710 ;;		_lcd_home
   711 ;;		_lcd_initialize
   712 ;;		_lcd_putstr
   713 ;; This function is called by:
   714 ;;		Startup code after reset
   715 ;; This function uses a non-reentrant model
   716 ;;
   717                           
   718                           
   719                           ;psect for function _main
   720  00CE                     _main:	
   721                           
   722                           ;main.c: 23: InitApp();
   723                           
   724                           ;incstack = 0
   725                           ; Regs used in _main: [wreg-fsr0h+status,2+status,0+pclath+cstack]
   726  00CE  120A  118A  2160  120A  118A  	fcall	_InitApp
   727                           
   728                           ;main.c: 25: PORTA = 0;
   729  00D3  1283               	bcf	3,5	;RP0=0, select bank0
   730  00D4  1303               	bcf	3,6	;RP1=0, select bank0
   731  00D5  0185               	clrf	5	;volatile
   732                           
   733                           ;main.c: 26: PORTB = 0;
   734  00D6  0186               	clrf	6	;volatile
   735                           
   736                           ;main.c: 27: PORTC = 0;
   737  00D7  0187               	clrf	7	;volatile
   738                           
   739                           ;main.c: 28: PORTD = 0;
   740  00D8  0188               	clrf	8	;volatile
   741                           
   742                           ;main.c: 30: TRISA = 0b11111111;
   743  00D9  30FF               	movlw	255
   744  00DA  1683               	bsf	3,5	;RP0=1, select bank1
   745  00DB  1303               	bcf	3,6	;RP1=0, select bank1
   746  00DC  0085               	movwf	5	;volatile
   747                           
   748                           ;main.c: 31: TRISB = 0b00000011;
   749  00DD  3003               	movlw	3
   750  00DE  0086               	movwf	6	;volatile
   751                           
   752                           ;main.c: 32: TRISC = 0b00000000;
   753  00DF  0187               	clrf	7	;volatile
   754                           
   755                           ;main.c: 33: TRISD = 0b00000000;
   756  00E0  0188               	clrf	8	;volatile
   757                           
   758                           ;main.c: 35: lcd_initialize();
   759  00E1  120A  118A  2061  120A  118A  	fcall	_lcd_initialize
   760                           
   761                           ;main.c: 36: adc_initialize();
   762  00E6  120A  118A  20FA  120A  118A  	fcall	_adc_initialize
   763  00EB                     l38:	
   764                           ;main.c: 38: while(1)
   765                           
   766                           
   767                           ;main.c: 39: {
   768                           ;main.c: 40: lcd_home();
   769  00EB  120A  118A  214A  120A  118A  	fcall	_lcd_home
   770                           
   771                           ;main.c: 41: lcd_putstr("hati");
   772  00F0  3001               	movlw	(low ((STR_1-__stringbase)| (0+32768)))& (0+255)
   773  00F1  120A  118A  2025  120A  118A  	fcall	_lcd_putstr
   774                           
   775                           ;main.c: 42: RB6=1;
   776  00F6  1283               	bcf	3,5	;RP0=0, select bank0
   777  00F7  1303               	bcf	3,6	;RP1=0, select bank0
   778  00F8  1706               	bsf	6,6	;volatile
   779  00F9  28EB               	goto	l38
   780  00FA                     __end_of_main:	
   781                           
   782                           	psect	text1
   783  0025                     __ptext1:	
   784 ;; *************** function _lcd_putstr *****************
   785 ;; Defined at:
   786 ;;		line 241 in file "lcd.c"
   787 ;; Parameters:    Size  Location     Type
   788 ;;  csz_string      1    wreg     PTR const unsigned char 
   789 ;;		 -> STR_1(5), 
   790 ;; Auto vars:     Size  Location     Type
   791 ;;  csz_string      1    2[BANK0 ] PTR const unsigned char 
   792 ;;		 -> STR_1(5), 
   793 ;; Return value:  Size  Location     Type
   794 ;;                  1    wreg      void 
   795 ;; Registers used:
   796 ;;		wreg, fsr0l, fsr0h, status,2, status,0, pclath, cstack
   797 ;; Tracked objects:
   798 ;;		On entry : 0/0
   799 ;;		On exit  : 0/0
   800 ;;		Unchanged: 0/0
   801 ;; Data sizes:     COMMON   BANK0   BANK1   BANK3   BANK2
   802 ;;      Params:         0       0       0       0       0
   803 ;;      Locals:         0       1       0       0       0
   804 ;;      Temps:          0       1       0       0       0
   805 ;;      Totals:         0       2       0       0       0
   806 ;;Total ram usage:        2 bytes
   807 ;; Hardware stack levels used:    1
   808 ;; Hardware stack levels required when called:    4
   809 ;; This function calls:
   810 ;;		_lcd_2ndline
   811 ;;		_lcd_putchar
   812 ;; This function is called by:
   813 ;;		_main
   814 ;; This function uses a non-reentrant model
   815 ;;
   816                           
   817                           
   818                           ;psect for function _lcd_putstr
   819  0025                     _lcd_putstr:	
   820                           
   821                           ;incstack = 0
   822                           ; Regs used in _lcd_putstr: [wreg-fsr0h+status,2+status,0+pclath+cstack]
   823                           ;lcd_putstr@csz_string stored from wreg
   824  0025  1283               	bcf	3,5	;RP0=0, select bank0
   825  0026  1303               	bcf	3,6	;RP1=0, select bank0
   826  0027  00AC               	movwf	lcd_putstr@csz_string
   827  0028                     l797:	
   828                           ;lcd.c: 244: while (*csz_string != '\0') {
   829                           
   830  0028  082C               	movf	lcd_putstr@csz_string,w
   831  0029  0084               	movwf	4
   832  002A  120A  118A  2115  120A  118A  	fcall	stringdir
   833  002F  3A00               	xorlw	0
   834  0030  1903               	btfsc	3,2
   835  0031  0008               	return
   836                           
   837                           ;lcd.c: 247: if (*csz_string == '\n' || *csz_string == '\r') {
   838  0032  082C               	movf	lcd_putstr@csz_string,w
   839  0033  0084               	movwf	4
   840  0034  120A  118A  2115  120A  118A  	fcall	stringdir
   841  0039  3A0A               	xorlw	10
   842  003A  1903               	skipnz
   843  003B  2846               	goto	l791
   844  003C  082C               	movf	lcd_putstr@csz_string,w
   845  003D  0084               	movwf	4
   846  003E  120A  118A  2115  120A  118A  	fcall	stringdir
   847  0043  3A0D               	xorlw	13
   848  0044  1D03               	skipz
   849  0045  284C               	goto	l793
   850  0046                     l791:	
   851                           
   852                           ;lcd.c: 248: lcd_2ndline();
   853  0046  120A  118A  2141  120A  118A  	fcall	_lcd_2ndline
   854                           
   855                           ;lcd.c: 249: }
   856  004B  285A               	goto	l795
   857  004C                     l793:	
   858                           
   859                           ;lcd.c: 252: else {
   860                           ;lcd.c: 253: lcd_putchar(*csz_string);
   861  004C  1283               	bcf	3,5	;RP0=0, select bank0
   862  004D  1303               	bcf	3,6	;RP1=0, select bank0
   863  004E  082C               	movf	lcd_putstr@csz_string,w
   864  004F  0084               	movwf	4
   865  0050  120A  118A  2115  120A  118A  	fcall	stringdir
   866  0055  120A  118A  2109  120A  118A  	fcall	_lcd_putchar
   867  005A                     l795:	
   868                           
   869                           ;lcd.c: 254: }
   870                           ;lcd.c: 257: csz_string++;
   871  005A  3001               	movlw	1
   872  005B  1283               	bcf	3,5	;RP0=0, select bank0
   873  005C  1303               	bcf	3,6	;RP1=0, select bank0
   874  005D  00AB               	movwf	??_lcd_putstr
   875  005E  082B               	movf	??_lcd_putstr,w
   876  005F  07AC               	addwf	lcd_putstr@csz_string,f
   877  0060  2828               	goto	l797
   878  0061                     __end_of_lcd_putstr:	
   879                           
   880                           	psect	text2
   881  0109                     __ptext2:	
   882 ;; *************** function _lcd_putchar *****************
   883 ;; Defined at:
   884 ;;		line 220 in file "lcd.c"
   885 ;; Parameters:    Size  Location     Type
   886 ;;  c_data          1    wreg     unsigned char 
   887 ;; Auto vars:     Size  Location     Type
   888 ;;  c_data          1    0[BANK0 ] unsigned char 
   889 ;; Return value:  Size  Location     Type
   890 ;;                  1    wreg      void 
   891 ;; Registers used:
   892 ;;		wreg, status,2, status,0, pclath, cstack
   893 ;; Tracked objects:
   894 ;;		On entry : 0/0
   895 ;;		On exit  : 0/0
   896 ;;		Unchanged: 0/0
   897 ;; Data sizes:     COMMON   BANK0   BANK1   BANK3   BANK2
   898 ;;      Params:         0       0       0       0       0
   899 ;;      Locals:         0       1       0       0       0
   900 ;;      Temps:          1       0       0       0       0
   901 ;;      Totals:         1       1       0       0       0
   902 ;;Total ram usage:        2 bytes
   903 ;; Hardware stack levels used:    1
   904 ;; Hardware stack levels required when called:    3
   905 ;; This function calls:
   906 ;;		_send_lcd_data
   907 ;; This function is called by:
   908 ;;		_lcd_putstr
   909 ;;		_lcd_bcd
   910 ;; This function uses a non-reentrant model
   911 ;;
   912                           
   913                           
   914                           ;psect for function _lcd_putchar
   915  0109                     _lcd_putchar:	
   916                           
   917                           ;incstack = 0
   918                           ; Regs used in _lcd_putchar: [wreg+status,2+status,0+pclath+cstack]
   919                           ;lcd_putchar@c_data stored from wreg
   920  0109  1283               	bcf	3,5	;RP0=0, select bank0
   921  010A  1303               	bcf	3,6	;RP1=0, select bank0
   922  010B  00AA               	movwf	lcd_putchar@c_data
   923                           
   924                           ;lcd.c: 223: send_lcd_data(1, (unsigned char)c_data);
   925  010C  082A               	movf	lcd_putchar@c_data,w
   926  010D  00F9               	movwf	??_lcd_putchar
   927  010E  0879               	movf	??_lcd_putchar,w
   928  010F  00F5               	movwf	send_lcd_data@uc_data
   929  0110  3001               	movlw	1
   930  0111  120A  118A  2099   	fcall	_send_lcd_data
   931  0114  0008               	return
   932  0115                     __end_of_lcd_putchar:	
   933                           
   934                           	psect	text3
   935  0141                     __ptext3:	
   936 ;; *************** function _lcd_2ndline *****************
   937 ;; Defined at:
   938 ;;		line 178 in file "lcd.c"
   939 ;; Parameters:    Size  Location     Type
   940 ;;		None
   941 ;; Auto vars:     Size  Location     Type
   942 ;;		None
   943 ;; Return value:  Size  Location     Type
   944 ;;                  1    wreg      void 
   945 ;; Registers used:
   946 ;;		wreg, status,2, status,0, pclath, cstack
   947 ;; Tracked objects:
   948 ;;		On entry : 0/0
   949 ;;		On exit  : 0/0
   950 ;;		Unchanged: 0/0
   951 ;; Data sizes:     COMMON   BANK0   BANK1   BANK3   BANK2
   952 ;;      Params:         0       0       0       0       0
   953 ;;      Locals:         0       0       0       0       0
   954 ;;      Temps:          1       0       0       0       0
   955 ;;      Totals:         1       0       0       0       0
   956 ;;Total ram usage:        1 bytes
   957 ;; Hardware stack levels used:    1
   958 ;; Hardware stack levels required when called:    3
   959 ;; This function calls:
   960 ;;		_send_lcd_data
   961 ;; This function is called by:
   962 ;;		_lcd_putstr
   963 ;; This function uses a non-reentrant model
   964 ;;
   965                           
   966                           
   967                           ;psect for function _lcd_2ndline
   968  0141                     _lcd_2ndline:	
   969                           
   970                           ;lcd.c: 181: send_lcd_data(0, 0b10000000 | 0x40);
   971                           
   972                           ;incstack = 0
   973                           ; Regs used in _lcd_2ndline: [wreg+status,2+status,0+pclath+cstack]
   974  0141  30C0               	movlw	192
   975  0142  00F9               	movwf	??_lcd_2ndline
   976  0143  0879               	movf	??_lcd_2ndline,w
   977  0144  00F5               	movwf	send_lcd_data@uc_data
   978  0145  3000               	movlw	0
   979  0146  120A  118A  2099   	fcall	_send_lcd_data
   980  0149  0008               	return
   981  014A                     __end_of_lcd_2ndline:	
   982                           
   983                           	psect	text4
   984  0061                     __ptext4:	
   985 ;; *************** function _lcd_initialize *****************
   986 ;; Defined at:
   987 ;;		line 100 in file "lcd.c"
   988 ;; Parameters:    Size  Location     Type
   989 ;;		None
   990 ;; Auto vars:     Size  Location     Type
   991 ;;		None
   992 ;; Return value:  Size  Location     Type
   993 ;;                  1    wreg      void 
   994 ;; Registers used:
   995 ;;		wreg, status,2, status,0, pclath, cstack
   996 ;; Tracked objects:
   997 ;;		On entry : 0/0
   998 ;;		On exit  : 0/0
   999 ;;		Unchanged: 0/0
  1000 ;; Data sizes:     COMMON   BANK0   BANK1   BANK3   BANK2
  1001 ;;      Params:         0       0       0       0       0
  1002 ;;      Locals:         0       0       0       0       0
  1003 ;;      Temps:          0       2       0       0       0
  1004 ;;      Totals:         0       2       0       0       0
  1005 ;;Total ram usage:        2 bytes
  1006 ;; Hardware stack levels used:    1
  1007 ;; Hardware stack levels required when called:    4
  1008 ;; This function calls:
  1009 ;;		_lcd_clear
  1010 ;;		_send_lcd_data
  1011 ;;		_set_lcd_e
  1012 ;; This function is called by:
  1013 ;;		_main
  1014 ;; This function uses a non-reentrant model
  1015 ;;
  1016                           
  1017                           
  1018                           ;psect for function _lcd_initialize
  1019  0061                     _lcd_initialize:	
  1020                           
  1021                           ;lcd.c: 104: set_lcd_e(1);
  1022                           
  1023                           ;incstack = 0
  1024                           ; Regs used in _lcd_initialize: [wreg+status,2+status,0+pclath+cstack]
  1025  0061  3001               	movlw	1
  1026  0062  120A  118A  212B  120A  118A  	fcall	_set_lcd_e
  1027                           
  1028                           ;lcd.c: 105: _delay((unsigned long)((15)*(20000000/4000.0)));
  1029  0067  3062               	movlw	98
  1030  0068  1283               	bcf	3,5	;RP0=0, select bank0
  1031  0069  1303               	bcf	3,6	;RP1=0, select bank0
  1032  006A  00AB               	movwf	??_lcd_initialize+1
  1033  006B  3065               	movlw	101
  1034  006C  00AA               	movwf	??_lcd_initialize
  1035  006D                     u377:	
  1036  006D  0BAA               	decfsz	??_lcd_initialize,f
  1037  006E  286D               	goto	u377
  1038  006F  0BAB               	decfsz	??_lcd_initialize+1,f
  1039  0070  286D               	goto	u377
  1040                           
  1041                           ;lcd.c: 108: send_lcd_data(0, 0b00100000 | 0b00010000 | 0b00001000 | 0b00000000);
  1042  0071  3038               	movlw	56
  1043  0072  1283               	bcf	3,5	;RP0=0, select bank0
  1044  0073  1303               	bcf	3,6	;RP1=0, select bank0
  1045  0074  00AA               	movwf	??_lcd_initialize
  1046  0075  082A               	movf	??_lcd_initialize,w
  1047  0076  00F5               	movwf	send_lcd_data@uc_data
  1048  0077  3000               	movlw	0
  1049  0078  120A  118A  2099  120A  118A  	fcall	_send_lcd_data
  1050                           
  1051                           ;lcd.c: 112: send_lcd_data(0, 0b00000100 | 0b00000010 | 0b00000000);
  1052  007D  3006               	movlw	6
  1053  007E  1283               	bcf	3,5	;RP0=0, select bank0
  1054  007F  1303               	bcf	3,6	;RP1=0, select bank0
  1055  0080  00AA               	movwf	??_lcd_initialize
  1056  0081  082A               	movf	??_lcd_initialize,w
  1057  0082  00F5               	movwf	send_lcd_data@uc_data
  1058  0083  3000               	movlw	0
  1059  0084  120A  118A  2099  120A  118A  	fcall	_send_lcd_data
  1060                           
  1061                           ;lcd.c: 115: send_lcd_data(0, 0b00001000 | 0b00000100 | 0b00000000 | 0b00000000);
  1062  0089  300C               	movlw	12
  1063  008A  1283               	bcf	3,5	;RP0=0, select bank0
  1064  008B  1303               	bcf	3,6	;RP1=0, select bank0
  1065  008C  00AA               	movwf	??_lcd_initialize
  1066  008D  082A               	movf	??_lcd_initialize,w
  1067  008E  00F5               	movwf	send_lcd_data@uc_data
  1068  008F  3000               	movlw	0
  1069  0090  120A  118A  2099  120A  118A  	fcall	_send_lcd_data
  1070                           
  1071                           ;lcd.c: 118: lcd_clear();
  1072  0095  120A  118A  2153   	fcall	_lcd_clear
  1073  0098  0008               	return
  1074  0099                     __end_of_lcd_initialize:	
  1075                           
  1076                           	psect	text5
  1077  0153                     __ptext5:	
  1078 ;; *************** function _lcd_clear *****************
  1079 ;; Defined at:
  1080 ;;		line 136 in file "lcd.c"
  1081 ;; Parameters:    Size  Location     Type
  1082 ;;		None
  1083 ;; Auto vars:     Size  Location     Type
  1084 ;;		None
  1085 ;; Return value:  Size  Location     Type
  1086 ;;                  1    wreg      void 
  1087 ;; Registers used:
  1088 ;;		wreg, status,2, status,0, pclath, cstack
  1089 ;; Tracked objects:
  1090 ;;		On entry : 0/0
  1091 ;;		On exit  : 0/0
  1092 ;;		Unchanged: 0/0
  1093 ;; Data sizes:     COMMON   BANK0   BANK1   BANK3   BANK2
  1094 ;;      Params:         0       0       0       0       0
  1095 ;;      Locals:         0       0       0       0       0
  1096 ;;      Temps:          0       0       0       0       0
  1097 ;;      Totals:         0       0       0       0       0
  1098 ;;Total ram usage:        0 bytes
  1099 ;; Hardware stack levels used:    1
  1100 ;; Hardware stack levels required when called:    3
  1101 ;; This function calls:
  1102 ;;		_send_lcd_data
  1103 ;; This function is called by:
  1104 ;;		_lcd_initialize
  1105 ;; This function uses a non-reentrant model
  1106 ;;
  1107                           
  1108                           
  1109                           ;psect for function _lcd_clear
  1110  0153                     _lcd_clear:	
  1111                           
  1112                           ;lcd.c: 139: send_lcd_data(0, 0b00000001);
  1113                           
  1114                           ;incstack = 0
  1115                           ; Regs used in _lcd_clear: [wreg+status,2+status,0+pclath+cstack]
  1116  0153  01F5               	clrf	send_lcd_data@uc_data
  1117  0154  0AF5               	incf	send_lcd_data@uc_data,f
  1118  0155  3000               	movlw	0
  1119  0156  120A  118A  2099   	fcall	_send_lcd_data
  1120  0159  0008               	return
  1121  015A                     __end_of_lcd_clear:	
  1122                           
  1123                           	psect	text6
  1124  014A                     __ptext6:	
  1125 ;; *************** function _lcd_home *****************
  1126 ;; Defined at:
  1127 ;;		line 157 in file "lcd.c"
  1128 ;; Parameters:    Size  Location     Type
  1129 ;;		None
  1130 ;; Auto vars:     Size  Location     Type
  1131 ;;		None
  1132 ;; Return value:  Size  Location     Type
  1133 ;;                  1    wreg      void 
  1134 ;; Registers used:
  1135 ;;		wreg, status,2, status,0, pclath, cstack
  1136 ;; Tracked objects:
  1137 ;;		On entry : 0/0
  1138 ;;		On exit  : 0/0
  1139 ;;		Unchanged: 0/0
  1140 ;; Data sizes:     COMMON   BANK0   BANK1   BANK3   BANK2
  1141 ;;      Params:         0       0       0       0       0
  1142 ;;      Locals:         0       0       0       0       0
  1143 ;;      Temps:          1       0       0       0       0
  1144 ;;      Totals:         1       0       0       0       0
  1145 ;;Total ram usage:        1 bytes
  1146 ;; Hardware stack levels used:    1
  1147 ;; Hardware stack levels required when called:    3
  1148 ;; This function calls:
  1149 ;;		_send_lcd_data
  1150 ;; This function is called by:
  1151 ;;		_main
  1152 ;; This function uses a non-reentrant model
  1153 ;;
  1154                           
  1155                           
  1156                           ;psect for function _lcd_home
  1157  014A                     _lcd_home:	
  1158                           
  1159                           ;lcd.c: 160: send_lcd_data(0, 0b00000010);
  1160                           
  1161                           ;incstack = 0
  1162                           ; Regs used in _lcd_home: [wreg+status,2+status,0+pclath+cstack]
  1163  014A  3002               	movlw	2
  1164  014B  00F9               	movwf	??_lcd_home
  1165  014C  0879               	movf	??_lcd_home,w
  1166  014D  00F5               	movwf	send_lcd_data@uc_data
  1167  014E  3000               	movlw	0
  1168  014F  120A  118A  2099   	fcall	_send_lcd_data
  1169  0152  0008               	return
  1170  0153                     __end_of_lcd_home:	
  1171                           
  1172                           	psect	text7
  1173  0099                     __ptext7:	
  1174 ;; *************** function _send_lcd_data *****************
  1175 ;; Defined at:
  1176 ;;		line 308 in file "lcd.c"
  1177 ;; Parameters:    Size  Location     Type
  1178 ;;  b_rs            1    wreg     unsigned char 
  1179 ;;  uc_data         1    5[COMMON] unsigned char 
  1180 ;; Auto vars:     Size  Location     Type
  1181 ;;  b_rs            1    8[COMMON] unsigned char 
  1182 ;; Return value:  Size  Location     Type
  1183 ;;                  1    wreg      void 
  1184 ;; Registers used:
  1185 ;;		wreg, status,2, status,0, pclath, cstack
  1186 ;; Tracked objects:
  1187 ;;		On entry : 0/0
  1188 ;;		On exit  : 0/0
  1189 ;;		Unchanged: 0/0
  1190 ;; Data sizes:     COMMON   BANK0   BANK1   BANK3   BANK2
  1191 ;;      Params:         1       0       0       0       0
  1192 ;;      Locals:         1       0       0       0       0
  1193 ;;      Temps:          2       0       0       0       0
  1194 ;;      Totals:         4       0       0       0       0
  1195 ;;Total ram usage:        4 bytes
  1196 ;; Hardware stack levels used:    1
  1197 ;; Hardware stack levels required when called:    2
  1198 ;; This function calls:
  1199 ;;		_set_lcd_data
  1200 ;;		_set_lcd_e
  1201 ;;		_set_lcd_rs
  1202 ;; This function is called by:
  1203 ;;		_lcd_initialize
  1204 ;;		_lcd_clear
  1205 ;;		_lcd_home
  1206 ;;		_lcd_2ndline
  1207 ;;		_lcd_putchar
  1208 ;;		_lcd_goto
  1209 ;; This function uses a non-reentrant model
  1210 ;;
  1211                           
  1212                           
  1213                           ;psect for function _send_lcd_data
  1214  0099                     _send_lcd_data:	
  1215                           
  1216                           ;incstack = 0
  1217                           ; Regs used in _send_lcd_data: [wreg+status,2+status,0+pclath+cstack]
  1218                           ;send_lcd_data@b_rs stored from wreg
  1219  0099  00F8               	movwf	send_lcd_data@b_rs
  1220                           
  1221                           ;lcd.c: 311: set_lcd_rs(b_rs);
  1222  009A  0878               	movf	send_lcd_data@b_rs,w
  1223  009B  120A  118A  2120  120A  118A  	fcall	_set_lcd_rs
  1224                           
  1225                           ;lcd.c: 312: set_lcd_data(uc_data);
  1226  00A0  0875               	movf	send_lcd_data@uc_data,w
  1227  00A1  120A  118A  215A  120A  118A  	fcall	_set_lcd_data
  1228                           
  1229                           ;lcd.c: 315: set_lcd_e(1);
  1230  00A6  3001               	movlw	1
  1231  00A7  120A  118A  212B  120A  118A  	fcall	_set_lcd_e
  1232                           
  1233                           ;lcd.c: 316: _delay((unsigned long)((1)*(20000000/4000.0)));
  1234  00AC  3007               	movlw	7
  1235  00AD  00F7               	movwf	??_send_lcd_data+1
  1236  00AE  307D               	movlw	125
  1237  00AF  00F6               	movwf	??_send_lcd_data
  1238  00B0                     u387:	
  1239  00B0  0BF6               	decfsz	??_send_lcd_data,f
  1240  00B1  28B0               	goto	u387
  1241  00B2  0BF7               	decfsz	??_send_lcd_data+1,f
  1242  00B3  28B0               	goto	u387
  1243                           
  1244                           ;lcd.c: 317: set_lcd_e(0);
  1245  00B4  3000               	movlw	0
  1246  00B5  120A  118A  212B  120A  118A  	fcall	_set_lcd_e
  1247                           
  1248                           ;lcd.c: 318: _delay((unsigned long)((2)*(20000000/4000.0)));
  1249  00BA  300D               	movlw	13
  1250  00BB  00F7               	movwf	??_send_lcd_data+1
  1251  00BC  30FB               	movlw	251
  1252  00BD  00F6               	movwf	??_send_lcd_data
  1253  00BE                     u397:	
  1254  00BE  0BF6               	decfsz	??_send_lcd_data,f
  1255  00BF  28BE               	goto	u397
  1256  00C0  0BF7               	decfsz	??_send_lcd_data+1,f
  1257  00C1  28BE               	goto	u397
  1258  00C2  28C3               	nop2
  1259                           
  1260                           ;lcd.c: 321: set_lcd_rs(0);
  1261  00C3  3000               	movlw	0
  1262  00C4  120A  118A  2120  120A  118A  	fcall	_set_lcd_rs
  1263                           
  1264                           ;lcd.c: 322: set_lcd_data(0);
  1265  00C9  3000               	movlw	0
  1266  00CA  120A  118A  215A   	fcall	_set_lcd_data
  1267  00CD  0008               	return
  1268  00CE                     __end_of_send_lcd_data:	
  1269                           
  1270                           	psect	text8
  1271  0120                     __ptext8:	
  1272 ;; *************** function _set_lcd_rs *****************
  1273 ;; Defined at:
  1274 ;;		line 360 in file "lcd.c"
  1275 ;; Parameters:    Size  Location     Type
  1276 ;;  b_output        1    wreg     unsigned char 
  1277 ;; Auto vars:     Size  Location     Type
  1278 ;;  b_output        1    4[COMMON] unsigned char 
  1279 ;; Return value:  Size  Location     Type
  1280 ;;                  1    wreg      void 
  1281 ;; Registers used:
  1282 ;;		wreg
  1283 ;; Tracked objects:
  1284 ;;		On entry : 0/0
  1285 ;;		On exit  : 0/0
  1286 ;;		Unchanged: 0/0
  1287 ;; Data sizes:     COMMON   BANK0   BANK1   BANK3   BANK2
  1288 ;;      Params:         0       0       0       0       0
  1289 ;;      Locals:         1       0       0       0       0
  1290 ;;      Temps:          0       0       0       0       0
  1291 ;;      Totals:         1       0       0       0       0
  1292 ;;Total ram usage:        1 bytes
  1293 ;; Hardware stack levels used:    1
  1294 ;; Hardware stack levels required when called:    1
  1295 ;; This function calls:
  1296 ;;		Nothing
  1297 ;; This function is called by:
  1298 ;;		_send_lcd_data
  1299 ;; This function uses a non-reentrant model
  1300 ;;
  1301                           
  1302                           
  1303                           ;psect for function _set_lcd_rs
  1304  0120                     _set_lcd_rs:	
  1305                           
  1306                           ;incstack = 0
  1307                           ; Regs used in _set_lcd_rs: [wreg]
  1308                           ;set_lcd_rs@b_output stored from wreg
  1309  0120  00F4               	movwf	set_lcd_rs@b_output
  1310                           
  1311                           ;lcd.c: 362: RB4 = b_output;
  1312  0121  1C74               	btfss	set_lcd_rs@b_output,0
  1313  0122  2927               	goto	u150
  1314  0123  1283               	bcf	3,5	;RP0=0, select bank0
  1315  0124  1303               	bcf	3,6	;RP1=0, select bank0
  1316  0125  1606               	bsf	6,4	;volatile
  1317  0126  0008               	return
  1318  0127                     u150:	
  1319  0127  1283               	bcf	3,5	;RP0=0, select bank0
  1320  0128  1303               	bcf	3,6	;RP1=0, select bank0
  1321  0129  1206               	bcf	6,4	;volatile
  1322  012A  0008               	return
  1323  012B                     __end_of_set_lcd_rs:	
  1324                           
  1325                           	psect	text9
  1326  012B                     __ptext9:	
  1327 ;; *************** function _set_lcd_e *****************
  1328 ;; Defined at:
  1329 ;;		line 340 in file "lcd.c"
  1330 ;; Parameters:    Size  Location     Type
  1331 ;;  b_output        1    wreg     unsigned char 
  1332 ;; Auto vars:     Size  Location     Type
  1333 ;;  b_output        1    4[COMMON] unsigned char 
  1334 ;; Return value:  Size  Location     Type
  1335 ;;                  1    wreg      void 
  1336 ;; Registers used:
  1337 ;;		wreg
  1338 ;; Tracked objects:
  1339 ;;		On entry : 0/0
  1340 ;;		On exit  : 0/0
  1341 ;;		Unchanged: 0/0
  1342 ;; Data sizes:     COMMON   BANK0   BANK1   BANK3   BANK2
  1343 ;;      Params:         0       0       0       0       0
  1344 ;;      Locals:         1       0       0       0       0
  1345 ;;      Temps:          0       0       0       0       0
  1346 ;;      Totals:         1       0       0       0       0
  1347 ;;Total ram usage:        1 bytes
  1348 ;; Hardware stack levels used:    1
  1349 ;; Hardware stack levels required when called:    1
  1350 ;; This function calls:
  1351 ;;		Nothing
  1352 ;; This function is called by:
  1353 ;;		_lcd_initialize
  1354 ;;		_send_lcd_data
  1355 ;; This function uses a non-reentrant model
  1356 ;;
  1357                           
  1358                           
  1359                           ;psect for function _set_lcd_e
  1360  012B                     _set_lcd_e:	
  1361                           
  1362                           ;incstack = 0
  1363                           ; Regs used in _set_lcd_e: [wreg]
  1364                           ;set_lcd_e@b_output stored from wreg
  1365  012B  00F4               	movwf	set_lcd_e@b_output
  1366                           
  1367                           ;lcd.c: 342: RB5 = b_output;
  1368  012C  1C74               	btfss	set_lcd_e@b_output,0
  1369  012D  2932               	goto	u130
  1370  012E  1283               	bcf	3,5	;RP0=0, select bank0
  1371  012F  1303               	bcf	3,6	;RP1=0, select bank0
  1372  0130  1686               	bsf	6,5	;volatile
  1373  0131  0008               	return
  1374  0132                     u130:	
  1375  0132  1283               	bcf	3,5	;RP0=0, select bank0
  1376  0133  1303               	bcf	3,6	;RP1=0, select bank0
  1377  0134  1286               	bcf	6,5	;volatile
  1378  0135  0008               	return
  1379  0136                     __end_of_set_lcd_e:	
  1380                           
  1381                           	psect	text10
  1382  015A                     __ptext10:	
  1383 ;; *************** function _set_lcd_data *****************
  1384 ;; Defined at:
  1385 ;;		line 380 in file "lcd.c"
  1386 ;; Parameters:    Size  Location     Type
  1387 ;;  uc_data         1    wreg     unsigned char 
  1388 ;; Auto vars:     Size  Location     Type
  1389 ;;  uc_data         1    4[COMMON] unsigned char 
  1390 ;; Return value:  Size  Location     Type
  1391 ;;                  1    wreg      void 
  1392 ;; Registers used:
  1393 ;;		wreg
  1394 ;; Tracked objects:
  1395 ;;		On entry : 0/0
  1396 ;;		On exit  : 0/0
  1397 ;;		Unchanged: 0/0
  1398 ;; Data sizes:     COMMON   BANK0   BANK1   BANK3   BANK2
  1399 ;;      Params:         0       0       0       0       0
  1400 ;;      Locals:         1       0       0       0       0
  1401 ;;      Temps:          0       0       0       0       0
  1402 ;;      Totals:         1       0       0       0       0
  1403 ;;Total ram usage:        1 bytes
  1404 ;; Hardware stack levels used:    1
  1405 ;; Hardware stack levels required when called:    1
  1406 ;; This function calls:
  1407 ;;		Nothing
  1408 ;; This function is called by:
  1409 ;;		_send_lcd_data
  1410 ;; This function uses a non-reentrant model
  1411 ;;
  1412                           
  1413                           
  1414                           ;psect for function _set_lcd_data
  1415  015A                     _set_lcd_data:	
  1416                           
  1417                           ;incstack = 0
  1418                           ; Regs used in _set_lcd_data: [wreg]
  1419                           ;set_lcd_data@uc_data stored from wreg
  1420  015A  00F4               	movwf	set_lcd_data@uc_data
  1421                           
  1422                           ;lcd.c: 382: PORTD = uc_data;
  1423  015B  0874               	movf	set_lcd_data@uc_data,w
  1424  015C  1283               	bcf	3,5	;RP0=0, select bank0
  1425  015D  1303               	bcf	3,6	;RP1=0, select bank0
  1426  015E  0088               	movwf	8	;volatile
  1427  015F  0008               	return
  1428  0160                     __end_of_set_lcd_data:	
  1429                           
  1430                           	psect	text11
  1431  00FA                     __ptext11:	
  1432 ;; *************** function _adc_initialize *****************
  1433 ;; Defined at:
  1434 ;;		line 28 in file "adc.c"
  1435 ;; Parameters:    Size  Location     Type
  1436 ;;		None
  1437 ;; Auto vars:     Size  Location     Type
  1438 ;;		None
  1439 ;; Return value:  Size  Location     Type
  1440 ;;                  1    wreg      void 
  1441 ;; Registers used:
  1442 ;;		None
  1443 ;; Tracked objects:
  1444 ;;		On entry : 0/0
  1445 ;;		On exit  : 0/0
  1446 ;;		Unchanged: 0/0
  1447 ;; Data sizes:     COMMON   BANK0   BANK1   BANK3   BANK2
  1448 ;;      Params:         0       0       0       0       0
  1449 ;;      Locals:         0       0       0       0       0
  1450 ;;      Temps:          0       0       0       0       0
  1451 ;;      Totals:         0       0       0       0       0
  1452 ;;Total ram usage:        0 bytes
  1453 ;; Hardware stack levels used:    1
  1454 ;; Hardware stack levels required when called:    1
  1455 ;; This function calls:
  1456 ;;		Nothing
  1457 ;; This function is called by:
  1458 ;;		_main
  1459 ;; This function uses a non-reentrant model
  1460 ;;
  1461                           
  1462                           
  1463                           ;psect for function _adc_initialize
  1464  00FA                     _adc_initialize:	
  1465                           
  1466                           ;adc.c: 31: ADCS1 = 1;
  1467                           
  1468                           ;incstack = 0
  1469                           ; Regs used in _adc_initialize: []
  1470  00FA  1283               	bcf	3,5	;RP0=0, select bank0
  1471  00FB  1303               	bcf	3,6	;RP1=0, select bank0
  1472  00FC  179F               	bsf	31,7	;volatile
  1473                           
  1474                           ;adc.c: 32: ADCS0 = 0;
  1475  00FD  131F               	bcf	31,6	;volatile
  1476                           
  1477                           ;adc.c: 39: ADFM = 1;
  1478  00FE  1683               	bsf	3,5	;RP0=1, select bank1
  1479  00FF  1303               	bcf	3,6	;RP1=0, select bank1
  1480  0100  179F               	bsf	31,7	;volatile
  1481                           
  1482                           ;adc.c: 41: PCFG3 = 0;
  1483  0101  119F               	bcf	31,3	;volatile
  1484                           
  1485                           ;adc.c: 42: PCFG2 = 0;
  1486  0102  111F               	bcf	31,2	;volatile
  1487                           
  1488                           ;adc.c: 43: PCFG1 = 0;
  1489  0103  109F               	bcf	31,1	;volatile
  1490                           
  1491                           ;adc.c: 44: PCFG0 = 0;
  1492  0104  101F               	bcf	31,0	;volatile
  1493                           
  1494                           ;adc.c: 47: ADON = 0;
  1495  0105  1283               	bcf	3,5	;RP0=0, select bank0
  1496  0106  1303               	bcf	3,6	;RP1=0, select bank0
  1497  0107  101F               	bcf	31,0	;volatile
  1498  0108  0008               	return
  1499  0109                     __end_of_adc_initialize:	
  1500                           
  1501                           	psect	text12
  1502  0160                     __ptext12:	
  1503 ;; *************** function _InitApp *****************
  1504 ;; Defined at:
  1505 ;;		line 22 in file "user.c"
  1506 ;; Parameters:    Size  Location     Type
  1507 ;;		None
  1508 ;; Auto vars:     Size  Location     Type
  1509 ;;		None
  1510 ;; Return value:  Size  Location     Type
  1511 ;;                  1    wreg      void 
  1512 ;; Registers used:
  1513 ;;		None
  1514 ;; Tracked objects:
  1515 ;;		On entry : 0/0
  1516 ;;		On exit  : 0/0
  1517 ;;		Unchanged: 0/0
  1518 ;; Data sizes:     COMMON   BANK0   BANK1   BANK3   BANK2
  1519 ;;      Params:         0       0       0       0       0
  1520 ;;      Locals:         0       0       0       0       0
  1521 ;;      Temps:          0       0       0       0       0
  1522 ;;      Totals:         0       0       0       0       0
  1523 ;;Total ram usage:        0 bytes
  1524 ;; Hardware stack levels used:    1
  1525 ;; Hardware stack levels required when called:    1
  1526 ;; This function calls:
  1527 ;;		Nothing
  1528 ;; This function is called by:
  1529 ;;		_main
  1530 ;; This function uses a non-reentrant model
  1531 ;;
  1532                           
  1533                           
  1534                           ;psect for function _InitApp
  1535  0160                     _InitApp:	
  1536                           
  1537                           ;incstack = 0
  1538                           ; Regs used in _InitApp: []
  1539  0160  0008               	return
  1540  0161                     __end_of_InitApp:	
  1541                           
  1542                           	psect	text13
  1543  0136                     __ptext13:	
  1544 ;; *************** function _isr *****************
  1545 ;; Defined at:
  1546 ;;		line 23 in file "interrupts.c"
  1547 ;; Parameters:    Size  Location     Type
  1548 ;;		None
  1549 ;; Auto vars:     Size  Location     Type
  1550 ;;		None
  1551 ;; Return value:  Size  Location     Type
  1552 ;;                  1    wreg      void 
  1553 ;; Registers used:
  1554 ;;		None
  1555 ;; Tracked objects:
  1556 ;;		On entry : 0/0
  1557 ;;		On exit  : 0/0
  1558 ;;		Unchanged: 0/0
  1559 ;; Data sizes:     COMMON   BANK0   BANK1   BANK3   BANK2
  1560 ;;      Params:         0       0       0       0       0
  1561 ;;      Locals:         0       0       0       0       0
  1562 ;;      Temps:          4       0       0       0       0
  1563 ;;      Totals:         4       0       0       0       0
  1564 ;;Total ram usage:        4 bytes
  1565 ;; Hardware stack levels used:    1
  1566 ;; This function calls:
  1567 ;;		Nothing
  1568 ;; This function is called by:
  1569 ;;		Interrupt level 1
  1570 ;; This function uses a non-reentrant model
  1571 ;;
  1572                           
  1573                           
  1574                           ;psect for function _isr
  1575  0136                     _isr:	
  1576  0136  0873               	movf	??_isr+3,w
  1577  0137  00FF               	movwf	127
  1578  0138  0872               	movf	??_isr+2,w
  1579  0139  008A               	movwf	10
  1580  013A  0871               	movf	??_isr+1,w
  1581  013B  0084               	movwf	4
  1582  013C  0E70               	swapf	??_isr^(0+-128),w
  1583  013D  0083               	movwf	3
  1584  013E  0EFE               	swapf	126,f
  1585  013F  0E7E               	swapf	126,w
  1586  0140  0009               	retfie
  1587  0141                     __end_of_isr:	
  1588  007E                     btemp	set	126	;btemp
  1589  007E                     wtemp0	set	126
  1590                           
  1591                           	psect	intentry
  1592  0004                     __pintentry:	
  1593                           ;incstack = 0
  1594                           ; Regs used in _isr: []
  1595                           
  1596  0004                     interrupt_function:	
  1597  007E                     saved_w	set	btemp
  1598  0004  00FE               	movwf	btemp
  1599  0005  0E03               	swapf	3,w
  1600  0006  00F0               	movwf	??_isr
  1601  0007  0804               	movf	4,w
  1602  0008  00F1               	movwf	??_isr+1
  1603  0009  080A               	movf	10,w
  1604  000A  00F2               	movwf	??_isr+2
  1605  000B  1283               	bcf	3,5	;RP0=0, select bank0
  1606  000C  1303               	bcf	3,6	;RP1=0, select bank0
  1607  000D  087F               	movf	btemp+1,w
  1608  000E  00F3               	movwf	??_isr+3
  1609  000F  120A  118A  2936   	ljmp	_isr


Data Sizes:
    Strings     5
    Constant    0
    Data        0
    BSS         10
    Persistent  0
    Stack       0

Auto Spaces:
    Space          Size  Autos    Used
    COMMON           14     10      10
    BANK0            80      3      13
    BANK1            80      0       0
    BANK3            96      0       0
    BANK2            96      0       0

Pointer List with Targets:

    lcd_putstr@csz_string	PTR const unsigned char  size(1) Largest target is 5
		 -> STR_1(CODE[5]), 


Critical Paths under _main in COMMON

    _main->_lcd_home
    _lcd_putstr->_lcd_2ndline
    _lcd_putstr->_lcd_putchar
    _lcd_putchar->_send_lcd_data
    _lcd_2ndline->_send_lcd_data
    _lcd_initialize->_send_lcd_data
    _lcd_clear->_send_lcd_data
    _lcd_home->_send_lcd_data
    _send_lcd_data->_set_lcd_data
    _send_lcd_data->_set_lcd_e
    _send_lcd_data->_set_lcd_rs

Critical Paths under _isr in COMMON

    None.

Critical Paths under _main in BANK0

    _main->_lcd_putstr
    _lcd_putstr->_lcd_putchar

Critical Paths under _isr in BANK0

    None.

Critical Paths under _main in BANK1

    None.

Critical Paths under _isr in BANK1

    None.

Critical Paths under _main in BANK3

    None.

Critical Paths under _isr in BANK3

    None.

Critical Paths under _main in BANK2

    None.

Critical Paths under _isr in BANK2

    None.

Call Graph Tables:

 ---------------------------------------------------------------------------------
 (Depth) Function   	        Calls       Base Space   Used Autos Params    Refs
 ---------------------------------------------------------------------------------
 (0) _main                                                 0     0      0    2830
                            _InitApp
                     _adc_initialize
                           _lcd_home
                     _lcd_initialize
                         _lcd_putstr
 ---------------------------------------------------------------------------------
 (1) _lcd_putstr                                           2     2      0    1206
                                              1 BANK0      2     2      0
                        _lcd_2ndline
                        _lcd_putchar
 ---------------------------------------------------------------------------------
 (2) _lcd_putchar                                          2     2      0     556
                                              9 COMMON     1     1      0
                                              0 BANK0      1     1      0
                      _send_lcd_data
 ---------------------------------------------------------------------------------
 (2) _lcd_2ndline                                          1     1      0     534
                                              9 COMMON     1     1      0
                      _send_lcd_data
 ---------------------------------------------------------------------------------
 (1) _lcd_initialize                                       2     2      0    1090
                                              0 BANK0      2     2      0
                          _lcd_clear
                      _send_lcd_data
                          _set_lcd_e
 ---------------------------------------------------------------------------------
 (2) _lcd_clear                                            0     0      0     534
                      _send_lcd_data
 ---------------------------------------------------------------------------------
 (1) _lcd_home                                             1     1      0     534
                                              9 COMMON     1     1      0
                      _send_lcd_data
 ---------------------------------------------------------------------------------
 (3) _send_lcd_data                                        4     3      1     534
                                              5 COMMON     4     3      1
                       _set_lcd_data
                          _set_lcd_e
                         _set_lcd_rs
 ---------------------------------------------------------------------------------
 (4) _set_lcd_rs                                           1     1      0      22
                                              4 COMMON     1     1      0
 ---------------------------------------------------------------------------------
 (4) _set_lcd_e                                            1     1      0      22
                                              4 COMMON     1     1      0
 ---------------------------------------------------------------------------------
 (4) _set_lcd_data                                         1     1      0      22
                                              4 COMMON     1     1      0
 ---------------------------------------------------------------------------------
 (1) _adc_initialize                                       0     0      0       0
 ---------------------------------------------------------------------------------
 (1) _InitApp                                              0     0      0       0
 ---------------------------------------------------------------------------------
 Estimated maximum stack depth 4
 ---------------------------------------------------------------------------------
 (Depth) Function   	        Calls       Base Space   Used Autos Params    Refs
 ---------------------------------------------------------------------------------
 (5) _isr                                                  4     4      0       0
                                              0 COMMON     4     4      0
 ---------------------------------------------------------------------------------
 Estimated maximum stack depth 5
 ---------------------------------------------------------------------------------

 Call Graph Graphs:

 _main (ROOT)
   _InitApp
   _adc_initialize
   _lcd_home
     _send_lcd_data
       _set_lcd_data
       _set_lcd_e
       _set_lcd_rs
   _lcd_initialize
     _lcd_clear
       _send_lcd_data
         _set_lcd_data
         _set_lcd_e
         _set_lcd_rs
     _send_lcd_data
       _set_lcd_data
       _set_lcd_e
       _set_lcd_rs
     _set_lcd_e
   _lcd_putstr
     _lcd_2ndline
       _send_lcd_data
         _set_lcd_data
         _set_lcd_e
         _set_lcd_rs
     _lcd_putchar
       _send_lcd_data
         _set_lcd_data
         _set_lcd_e
         _set_lcd_rs

 _isr (ROOT)

 Address spaces:
Name               Size   Autos  Total    Cost      Usage
BITCOMMON            E      0       0       0        0.0%
EEDATA             100      0       0       0        0.0%
NULL                 0      0       0       0        0.0%
CODE                 0      0       0       0        0.0%
COMMON               E      A       A       1       71.4%
BITSFR0              0      0       0       1        0.0%
SFR0                 0      0       0       1        0.0%
BITSFR1              0      0       0       2        0.0%
SFR1                 0      0       0       2        0.0%
STACK                0      0       0       2        0.0%
ABS                  0      0      17       3        0.0%
BITBANK0            50      0       0       4        0.0%
BITSFR3              0      0       0       4        0.0%
SFR3                 0      0       0       4        0.0%
BANK0               50      3       D       5       16.3%
BITSFR2              0      0       0       5        0.0%
SFR2                 0      0       0       5        0.0%
BITBANK1            50      0       0       6        0.0%
BANK1               50      0       0       7        0.0%
BITBANK3            60      0       0       8        0.0%
BANK3               60      0       0       9        0.0%
BITBANK2            60      0       0      10        0.0%
BANK2               60      0       0      11        0.0%
DATA                 0      0      17      12        0.0%


Microchip Technology PIC Macro Assembler V1.45 build -152302408 
Symbol Table                                                                                   Sun Dec 31 17:57:43 2017

                      pc 0002             ?_lcd_putchar 0070              __CFG_CP$OFF 0000  
                     l38 00EB                       fsr 0004                      l791 0046  
                    l793 004C                      l795 005A                      l797 0028  
                    _RB4 0034                      _RB5 0035                      _RB6 0036  
                    u130 0132                      u150 0127             __CFG_CPD$OFF 0000  
                    u377 006D                      u387 00B0                      u397 00BE  
                    _isr 0136                      fsr0 0004             __CFG_FOSC$HS 0000  
      set_lcd_e@b_output 0074             __CFG_LVP$OFF 0000                     _ADFM 04FF  
                   ?_isr 0070                     _ADON 00F8                     _CHS0 00FB  
                   _CHS1 00FC                     _CHS2 00FD                     STR_1 011B  
           __CFG_WRT$OFF 0000                     _main 00CE                     btemp 007E  
          __CFG_BOREN$ON 0000                     start 0012          __end_of_InitApp 0161  
                  ??_isr 0070                    _ADCS0 00FE                    _ADCS1 00FF  
                  ?_main 0070            __CFG_WDTE$OFF 0000                    _PCFG0 04F8  
                  _PCFG1 04F9                    _PCFG2 04FA                    _PCFG3 04FB  
                  _PORTA 0005                    _PORTB 0006                    _PORTC 0007  
                  _PORTD 0008                    _TRISA 0085                    _TRISB 0086  
                  _TRISC 0087                    _TRISD 0088     send_lcd_data@uc_data 0075  
          __CFG_PWRTE$ON 0000                    pclath 000A                    status 0003  
                  wtemp0 007E          __initialization 0015        send_lcd_data@b_rs 0078  
           __end_of_main 00FA     __size_of_lcd_2ndline 0009    __end_of_send_lcd_data 00CE  
                 ??_main 007A                   _ADRESH 001E                   _ADRESL 009E  
              ??_InitApp 0074         __end_of_lcd_home 0153  __size_of_adc_initialize 000F  
   __size_of_lcd_putchar 000C                   saved_w 007E         ??_lcd_initialize 002A  
__end_of__initialization 0021           __pcstackCOMMON 0070       __size_of_lcd_clear 0007  
             __pbssBANK0 0020               __pmaintext 00CE               __pintentry 0004  
     __size_of_set_lcd_e 000B               _lcd_putstr 0025                ?_lcd_home 0070  
             __stringtab 0115            ?_set_lcd_data 0070                  _InitApp 0160  
      __end_of_lcd_clear 015A           _adc_initialize 00FA                  __ptext1 0025  
                __ptext2 0109                  __ptext3 0141                  __ptext4 0061  
                __ptext5 0153                  __ptext6 014A                  __ptext7 0099  
                __ptext8 0120                  __ptext9 012B             __size_of_isr 000B  
             ??_lcd_home 0079     end_of_initialization 0021           ??_set_lcd_data 0074  
      __end_of_set_lcd_e 0136   __end_of_adc_initialize 0109               _set_lcd_rs 0120  
          ??_lcd_2ndline 0079              ?_lcd_putstr 0070   __size_of_send_lcd_data 0035  
        ?_adc_initialize 0070            ??_lcd_putchar 0079        lcd_putchar@c_data 002A  
    __end_of_lcd_2ndline 014A      start_initialization 0015       set_lcd_rs@b_output 0074  
            __end_of_isr 0141     lcd_putstr@csz_string 002C              ?_set_lcd_rs 0070  
    __size_of_lcd_putstr 003C            _send_lcd_data 0099     __end_of_set_lcd_data 0160  
    __end_of_lcd_putchar 0115                ___latbits 0002            __pcstackBANK0 002A  
      __size_of_lcd_home 0009                 ?_InitApp 0070  __size_of_lcd_initialize 0038  
            _lcd_2ndline 0141                _lcd_clear 0153           ?_send_lcd_data 0075  
              __pstrings 0115      __size_of_set_lcd_rs 000B      set_lcd_data@uc_data 0074  
      interrupt_function 0004                _set_lcd_e 012B                 _GO_nDONE 00FA  
            _lcd_putchar 0109               ?_lcd_clear 0070              __stringbase 011A  
           ??_lcd_putstr 002B         ??_adc_initialize 0074         __size_of_InitApp 0001  
             ?_set_lcd_e 0070    __size_of_set_lcd_data 0006          ??_send_lcd_data 0076  
     __end_of_lcd_putstr 0061       __end_of__stringtab 011B                 __ptext10 015A  
               __ptext11 00FA                 __ptext12 0160                 __ptext13 0136  
               _lcd_home 014A            __size_of_main 002C             _set_lcd_data 015A  
         _lcd_initialize 0061             ??_set_lcd_rs 0074              ??_lcd_clear 0079  
     __end_of_set_lcd_rs 012B                 intlevel1 0000   __end_of_lcd_initialize 0099  
              stringcode 0115              ??_set_lcd_e 0074             ?_lcd_2ndline 0070  
           lcd_bcd@F1134 0020                 stringdir 0115                 stringtab 0115  
        ?_lcd_initialize 0070  
