Microchip MPLAB XC8 Compiler V1.45 ()

Linker command line:

-W-3 --edf=C:\Program Files (x86)\Microchip\xc8\v1.45\dat\en_msgs.txt -cs \
  -h+dist/XC8_PIC16F877A/production\PIC16F877A_LED_Project_Prototype.production.sym \
  --cmf=dist/XC8_PIC16F877A/production\PIC16F877A_LED_Project_Prototype.production.cmf \
  -z -Q16F877A -oC:\Users\Amirz\AppData\Local\Temp\s74c.2 \
  -Mdist/XC8_PIC16F877A/production/PIC16F877A_LED_Project_Prototype.production.map \
  -E1 -ver=XC8 -ASTACK=0110h-016fh -pstack=STACK -ACODE=00h-07FFhx4 \
  -ASTRCODE=00h-01FFFh -ASTRING=00h-0FFhx32 -ACONST=00h-0FFhx32 \
  -AENTRY=00h-0FFhx32 -ACOMMON=070h-07Fh -ABANK0=020h-06Fh \
  -ABANK1=0A0h-0EFh -ABANK2=0110h-016Fh -ABANK3=0190h-01EFh \
  -ARAM=020h-06Fh,0A0h-0EFh,0110h-016Fh,0190h-01EFh \
  -AABS1=020h-07Fh,0A0h-0EFh,0110h-016Fh,0190h-01EFh -ASFR0=00h-01Fh \
  -ASFR1=080h-09Fh -ASFR2=0100h-010Fh -ASFR3=0180h-018Fh \
  -preset_vec=00h,intentry=04h,init,end_init -ppowerup=CODE -pcinit=CODE \
  -pfunctab=ENTRY -ACONFIG=02007h-02007h -pconfig=CONFIG -DCONFIG=2 \
  -AIDLOC=02000h-02003h -pidloc=IDLOC -DIDLOC=2 -AEEDATA=00h-0FFh/02100h \
  -peeprom_data=EEDATA -DEEDATA=2 -DCODE=2 -DSTRCODE=2 -DSTRING=2 -DCONST=2 \
  -DENTRY=2 -k C:\Users\Amirz\AppData\Local\Temp\s74c.obj \
  dist/XC8_PIC16F877A/production\PIC16F877A_LED_Project_Prototype.production.obj 

Object code version is 3.11

Machine type is 16F877A



                Name                               Link     Load   Length Selector   Space Scale
C:\Users\Amirz\AppData\Local\Temp\s74c.obj
                end_init                             12       12        3        8       0
                reset_vec                             0        0        3        0       0
                config                             2007     2007        1     400E       0
dist/XC8_PIC16F877A/production\PIC16F877A_LED_Project_Prototype.production.obj
                cinit                                15       15       12        8       0
                intentry                              4        4        E        8       0
                text18                              372      372        A      672       0
                text17                              395      395        8      672       0
                text16                              305      305       1C        8       0
                text15                              1A6      1A6       5E        8       0
                text14                              3A3      3A3        1      672       0
                text13                              349      349        F      672       0
                text12                              39D      39D        6      672       0
                text11                              365      365        D      672       0
                text10                              358      358        D      672       0
                text9                               252      252       3D        8       0
                text8                               37C      37C        9      672       0
                text7                               28F      28F       38        8       0
                text6                               339      339       10      672       0
                text5                               2E7      2E7       1E        8       0
                text4                               117      117       8F        8       0
                text3                                27       27       F0        8       0
                text2                               38D      38D        8      672       0
                text1                               2C7      2C7       20        8       0
                maintext                            204      204       4E        8       0
                cstackBANK0                          20       20       21       20       1
                cstackCOMMON                         77       77        7       70       1
                clrtext                             385      385        8      672       0
                bssBANK0                             41       41       18       20       1
                bssCOMMON                            70       70        7       70       1
                strings                             321      321       18      642       0

TOTAL           Name                               Link     Load   Length     Space
        CLASS   STACK          

        CLASS   CODE           
                end_init                             12       12        3         0
                cinit                                15       15       12         0
                intentry                              4        4        E         0
                reset_vec                             0        0        3         0
                text18                              372      372        A         0
                text17                              395      395        8         0
                text16                              305      305       1C         0
                text15                              1A6      1A6       5E         0
                text14                              3A3      3A3        1         0
                text13                              349      349        F         0
                text12                              39D      39D        6         0
                text11                              365      365        D         0
                text10                              358      358        D         0
                text9                               252      252       3D         0
                text8                               37C      37C        9         0
                text7                               28F      28F       38         0
                text6                               339      339       10         0
                text5                               2E7      2E7       1E         0
                text4                               117      117       8F         0
                text3                                27       27       F0         0
                text2                               38D      38D        8         0
                text1                               2C7      2C7       20         0
                maintext                            204      204       4E         0
                clrtext                             385      385        8         0

        CLASS   STRCODE        

        CLASS   STRING         
                strings                             321      321       18         0

        CLASS   CONST          

        CLASS   ENTRY          

        CLASS   COMMON         
                cstackCOMMON                         77       77        7         1
                bssCOMMON                            70       70        7         1

        CLASS   BANK0          
                cstackBANK0                          20       20       21         1
                bssBANK0                             41       41       18         1

        CLASS   BANK1          

        CLASS   BANK2          

        CLASS   BANK3          

        CLASS   RAM            

        CLASS   ABS1           
                abs_s1                               7E       7E        2         1

        CLASS   SFR0           

        CLASS   SFR1           

        CLASS   SFR2           

        CLASS   SFR3           

        CLASS   CONFIG         
                config                             2007     2007        1         0

        CLASS   IDLOC          

        CLASS   EEDATA         



SEGMENTS        Name                           Load    Length   Top    Selector   Space  Class     Delta

                reset_vec                      000000  000003  000003         0       0  CODE        2
                intentry                       000004  00031D  000321         8       0  CODE        2
                cstackBANK0                    000020  000039  000059        20       1  BANK0       1
                bssCOMMON                      000070  00000E  00007E        70       1  COMMON      1
                strings                        000321  000018  000339       642       0  STRING      2
                text6                          000339  00006B  0003A4       672       0  CODE        2
                config                         002007  000001  002008      400E       0  CONFIG      2


UNUSED ADDRESS RANGES

        Name                Unused          Largest block    Delta
        BANK0            0059-006F             17           1
        BANK1            00A0-00EF             50           1
        BANK2            0110-016F             60           1
        BANK3            0190-01EF             60           1
        CODE             0003-0003              1           2
                         03A4-1FFF            800
        CONST            0003-0003              1           2
                         03A4-1FFF            100
        EEDATA           2100-21FF            100           2
        ENTRY            0003-0003              1           2
                         03A4-1FFF            100
        IDLOC            2000-2003              4           2
        RAM              0059-006F             17           1
                         00A0-00EF             50
                         0110-016F             60
                         0190-01EF             60
        SFR0             0000-001F             20           1
        SFR1             0080-009F             20           1
        SFR2             0100-010F             10           1
        SFR3             0180-018F             10           1
        STACK            0110-016F             60           1
        STRCODE          0003-0003              1           2
                         03A4-1FFF           1C5C
        STRING           0003-0003              1           2
                         03A4-1FFF            100

                                  Symbol Table

?___aldiv                        cstackBANK0  0020
_ADCS0                           (abs)        00FE
_ADCS1                           (abs)        00FF
_ADFM                            (abs)        04FF
_ADON                            (abs)        00F8
_ADRESH                          (abs)        001E
_ADRESL                          (abs)        009E
_BRGH                            (abs)        04C2
_CCP2CON                         (abs)        001D
_CCP2M0                          (abs)        00E8
_CCP2M1                          (abs)        00E9
_CCP2M2                          (abs)        00EA
_CCP2M3                          (abs)        00EB
_CCPR2L                          (abs)        001B
_CHS0                            (abs)        00FB
_CHS1                            (abs)        00FC
_CHS2                            (abs)        00FD
_CREN                            (abs)        00C4
_GIE                             (abs)        005F
_GO_nDONE                        (abs)        00FA
_INTE                            (abs)        005C
_INTF                            (abs)        0059
_InitApp                         text14       03A3
_OERR                            (abs)        00C1
_OPTION_REG                      (abs)        0081
_PCFG0                           (abs)        04F8
_PCFG1                           (abs)        04F9
_PCFG2                           (abs)        04FA
_PCFG3                           (abs)        04FB
_PEIE                            (abs)        005E
_PORTA                           (abs)        0005
_PORTB                           (abs)        0006
_PORTC                           (abs)        0007
_PORTD                           (abs)        0008
_PR2                             (abs)        0092
_RB4                             (abs)        0034
_RB5                             (abs)        0035
_RB6                             (abs)        0036
_RCIE                            (abs)        0465
_RCIF                            (abs)        0065
_RCREG                           (abs)        001A
_SPBRG                           (abs)        0099
_SPEN                            (abs)        00C7
_SYNC                            (abs)        04C4
_T2CKPS0                         (abs)        0090
_T2CKPS1                         (abs)        0091
_TMR0                            (abs)        0001
_TMR0IE                          (abs)        005D
_TMR0IF                          (abs)        005A
_TMR2ON                          (abs)        0092
_TRISA                           (abs)        0085
_TRISB                           (abs)        0086
_TRISC                           (abs)        0087
_TRISC6                          (abs)        043E
_TRISC7                          (abs)        043F
_TRISD                           (abs)        0088
_TXEN                            (abs)        04C5
_TXIF                            (abs)        0064
_TXREG                           (abs)        0019
__CFG_BOREN$ON                   (abs)        0000
__CFG_CP$OFF                     (abs)        0000
__CFG_CPD$OFF                    (abs)        0000
__CFG_FOSC$HS                    (abs)        0000
__CFG_LVP$OFF                    (abs)        0000
__CFG_PWRTE$ON                   (abs)        0000
__CFG_WDTE$OFF                   (abs)        0000
__CFG_WRT$OFF                    (abs)        0000
__Habs1                          abs1         0000
__Hbank0                         bank0        0000
__Hbank1                         bank1        0000
__Hbank2                         bank2        0000
__Hbank3                         bank3        0000
__HbssBANK0                      bssBANK0     0000
__HbssCOMMON                     bssCOMMON    0000
__Hcinit                         cinit        0027
__Hclrtext                       clrtext      0000
__Hcode                          code         0000
__Hcommon                        common       0000
__Hconfig                        config       2008
__HcstackBANK0                   cstackBANK0  0000
__HcstackCOMMON                  cstackCOMMON 0000
__Heeprom_data                   eeprom_data  0000
__Hend_init                      end_init     0015
__Hfunctab                       functab      0000
__Hidloc                         idloc        0000
__Hinit                          init         0012
__Hintentry                      intentry     0012
__Hmaintext                      maintext     0000
__Hpowerup                       powerup      0000
__Hram                           ram          0000
__Hreset_vec                     reset_vec    0003
__Hsfr0                          sfr0         0000
__Hsfr1                          sfr1         0000
__Hsfr2                          sfr2         0000
__Hsfr3                          sfr3         0000
__Hspace_0                       (abs)        2008
__Hspace_1                       (abs)        007E
__Hspace_2                       (abs)        0000
__Hspace_3                       (abs)        0000
__Hstack                         stack        0000
__Hstrings                       strings      0000
__Htext                          text         0000
__Labs1                          abs1         0000
__Lbank0                         bank0        0000
__Lbank1                         bank1        0000
__Lbank2                         bank2        0000
__Lbank3                         bank3        0000
__LbssBANK0                      bssBANK0     0000
__LbssCOMMON                     bssCOMMON    0000
__Lcinit                         cinit        0015
__Lclrtext                       clrtext      0000
__Lcode                          code         0000
__Lcommon                        common       0000
__Lconfig                        config       2007
__LcstackBANK0                   cstackBANK0  0000
__LcstackCOMMON                  cstackCOMMON 0000
__Leeprom_data                   eeprom_data  0000
__Lend_init                      end_init     0012
__Lfunctab                       functab      0000
__Lidloc                         idloc        0000
__Linit                          init         0012
__Lintentry                      intentry     0004
__Lmaintext                      maintext     0000
__Lpowerup                       powerup      0000
__Lram                           ram          0000
__Lreset_vec                     reset_vec    0000
__Lsfr0                          sfr0         0000
__Lsfr1                          sfr1         0000
__Lsfr2                          sfr2         0000
__Lsfr3                          sfr3         0000
__Lspace_0                       (abs)        0000
__Lspace_1                       (abs)        0000
__Lspace_2                       (abs)        0000
__Lspace_3                       (abs)        0000
__Lstack                         stack        0000
__Lstrings                       strings      0000
__Ltext                          text         0000
__S0                             (abs)        2008
__S1                             (abs)        007E
__S2                             (abs)        0000
__S3                             (abs)        0000
___aldiv                         text4        0117
___aldiv@counter                 cstackBANK0  0029
___aldiv@dividend                cstackBANK0  0024
___aldiv@divisor                 cstackBANK0  0020
___aldiv@quotient                cstackBANK0  002B
___aldiv@sign                    cstackBANK0  002A
___int_sp                        stack        0000
___latbits                       (abs)        0002
___sp                            stack        0000
__end_of_InitApp                 text14       03A4
__end_of___aldiv                 text4        01A6
__end_of__initialization         cinit        0023
__end_of__stringtab              strings      0327
__end_of_adc_initialize          text13       0358
__end_of_isr                     text15       0204
__end_of_lcd_clear               text8        0385
__end_of_lcd_initialize          text7        02C7
__end_of_main                    maintext     0252
__end_of_pwm_initialize          text6        0349
__end_of_pwm_set_duty_cycle      text5        0305
__end_of_send_lcd_data           text9        028F
__end_of_set_lcd_data            text12       03A3
__end_of_set_lcd_e               text11       0372
__end_of_set_lcd_rs              text10       0365
__end_of_uart_init               text3        0117
__end_of_uart_putstr             text1        02E7
__end_of_uart_read               text18       037C
__end_of_uart_send               text2        0395
__end_ofi1_uart_putstr           text16       0321
__end_ofi1_uart_send             text17       039D
__initialization                 cinit        0015
__pbssBANK0                      bssBANK0     0041
__pbssCOMMON                     bssCOMMON    0070
__pcstackBANK0                   cstackBANK0  0020
__pcstackCOMMON                  cstackCOMMON 0077
__pintentry                      intentry     0004
__pmaintext                      maintext     0204
__pstrings                       strings      0321
__ptext1                         text1        02C7
__ptext10                        text10       0358
__ptext11                        text11       0365
__ptext12                        text12       039D
__ptext13                        text13       0349
__ptext14                        text14       03A3
__ptext15                        text15       01A6
__ptext16                        text16       0305
__ptext17                        text17       0395
__ptext18                        text18       0372
__ptext2                         text2        038D
__ptext3                         text3        0027
__ptext4                         text4        0117
__ptext5                         text5        02E7
__ptext6                         text6        0339
__ptext7                         text7        028F
__ptext8                         text8        037C
__ptext9                         text9        0252
__size_of_InitApp                (abs)        0000
__size_of___aldiv                (abs)        0000
__size_of_adc_initialize         (abs)        0000
__size_of_isr                    (abs)        0000
__size_of_lcd_clear              (abs)        0000
__size_of_lcd_initialize         (abs)        0000
__size_of_main                   (abs)        0000
__size_of_pwm_initialize         (abs)        0000
__size_of_pwm_set_duty_cycle     (abs)        0000
__size_of_send_lcd_data          (abs)        0000
__size_of_set_lcd_data           (abs)        0000
__size_of_set_lcd_e              (abs)        0000
__size_of_set_lcd_rs             (abs)        0000
__size_of_uart_init              (abs)        0000
__size_of_uart_putstr            (abs)        0000
__size_of_uart_read              (abs)        0000
__size_of_uart_send              (abs)        0000
__size_ofi1_uart_putstr          (abs)        0000
__size_ofi1_uart_send            (abs)        0000
__stringbase                     strings      0326
__stringtab                      strings      0321
_adc_initialize                  text13       0349
_beep                            bssCOMMON    0072
_isr                             text15       01A6
_lcd_clear                       text8        037C
_lcd_initialize                  text7        028F
_ledtime                         bssCOMMON    0070
_main                            maintext     0204
_pwm_initialize                  text6        0339
_pwm_set_duty_cycle              text5        02E7
_send_lcd_data                   text9        0252
_set_lcd_data                    text12       039D
_set_lcd_e                       text11       0365
_set_lcd_rs                      text10       0358
_time                            bssCOMMON    0074
_uart_init                       text3        0027
_uart_putstr                     text1        02C7
_uart_read                       text18       0372
_uart_send                       text2        038D
btemp                            (abs)        007E
clear_ram0                       clrtext      0385
end_of_initialization            cinit        0023
i1_uart_putstr                   text16       0305
i1_uart_send                     text17       0395
i1uart_putstr@st_pt              cstackCOMMON 0079
i1uart_send@uc_data              cstackCOMMON 0077
interrupt_function               intentry     0004
intlevel0                        functab      0000
intlevel1                        functab      0000
intlevel2                        functab      0000
intlevel3                        functab      0000
intlevel4                        functab      0000
intlevel5                        functab      0000
lcd_bcd@F1136                    bssBANK0     0041
pwm_set_duty_cycle@ui_duty_cycle cstackBANK0  0020
reset_vec                        reset_vec    0000
saved_w                          (abs)        007E
send_lcd_data@b_rs               cstackBANK0  0024
send_lcd_data@uc_data            cstackBANK0  0021
set_lcd_data@uc_data             cstackBANK0  0020
set_lcd_e@b_output               cstackBANK0  0020
set_lcd_rs@b_output              cstackBANK0  0020
stackhi                          (abs)        0000
stacklo                          (abs)        0000
start                            init         0012
start_initialization             cinit        0015
uart_init@baudrate               cstackBANK0  002F
uart_init@x                      cstackBANK0  003F
uart_putstr@st_pt                cstackBANK0  0022
uart_send@uc_data                cstackBANK0  0020
wtemp0                           (abs)        007E


FUNCTION INFORMATION:

 *************** function _main *****************
 Defined at:
		line 23 in file "main.c"
 Parameters:    Size  Location     Type
		None
 Auto vars:     Size  Location     Type
		None
 Return value:  Size  Location     Type
                  1    wreg      void 
 Registers used:
		wreg, fsr0l, fsr0h, status,2, status,0, pclath, cstack
 Tracked objects:
		On entry : 
		On exit  : 
		Unchanged: 
 Data sizes:     COMMON   BANK0   BANK1   BANK3   BANK2
      Params:         0       0       0       0       0
      Locals:         0       0       0       0       0
      Temps:          0       0       0       0       0
      Totals:         0       0       0       0       0
Total ram usage:        0 bytes
 Hardware stack levels required when called:    7
 This function calls:
		_InitApp
		_adc_initialize
		_lcd_initialize
		_pwm_initialize
		_pwm_set_duty_cycle
		_uart_init
		_uart_putstr
 This function is called by:
		Startup code after reset
 This function uses a non-reentrant model


 *************** function _uart_putstr *****************
 Defined at:
		line 127 in file "uart.c"
 Parameters:    Size  Location     Type
  st_pt           1    wreg     PTR unsigned char 
		 -> STR_2(11), STR_1(7), 
 Auto vars:     Size  Location     Type
  st_pt           1    2[BANK0 ] PTR unsigned char 
		 -> STR_2(11), STR_1(7), 
 Return value:  Size  Location     Type
                  1    wreg      void 
 Registers used:
		wreg, fsr0l, fsr0h, status,2, status,0, pclath, cstack
 Tracked objects:
		On entry : 
		On exit  : 
		Unchanged: 
 Data sizes:     COMMON   BANK0   BANK1   BANK3   BANK2
      Params:         0       0       0       0       0
      Locals:         0       1       0       0       0
      Temps:          0       1       0       0       0
      Totals:         0       2       0       0       0
Total ram usage:        2 bytes
 Hardware stack levels used:    1
 Hardware stack levels required when called:    4
 This function calls:
		_uart_send
 This function is called by:
		_main
 This function uses a non-reentrant model


 *************** function _uart_send *****************
 Defined at:
		line 69 in file "uart.c"
 Parameters:    Size  Location     Type
  uc_data         1    wreg     unsigned char 
 Auto vars:     Size  Location     Type
  uc_data         1    0[BANK0 ] unsigned char 
 Return value:  Size  Location     Type
                  1    wreg      void 
 Registers used:
		wreg
 Tracked objects:
		On entry : 
		On exit  : 
		Unchanged: 
 Data sizes:     COMMON   BANK0   BANK1   BANK3   BANK2
      Params:         0       0       0       0       0
      Locals:         0       1       0       0       0
      Temps:          0       0       0       0       0
      Totals:         0       1       0       0       0
Total ram usage:        1 bytes
 Hardware stack levels used:    1
 Hardware stack levels required when called:    3
 This function calls:
		Nothing
 This function is called by:
		_uart_putstr
 This function uses a non-reentrant model


 *************** function _uart_init *****************
 Defined at:
		line 28 in file "uart.c"
 Parameters:    Size  Location     Type
  baudrate        4   15[BANK0 ] const long 
 Auto vars:     Size  Location     Type
  x               2   31[BANK0 ] unsigned int 
 Return value:  Size  Location     Type
                  1    wreg      unsigned char 
 Registers used:
		wreg, status,2, status,0, pclath, cstack
 Tracked objects:
		On entry : 
		On exit  : 
		Unchanged: 
 Data sizes:     COMMON   BANK0   BANK1   BANK3   BANK2
      Params:         0       4       0       0       0
      Locals:         0       2       0       0       0
      Temps:          0      12       0       0       0
      Totals:         0      18       0       0       0
Total ram usage:       18 bytes
 Hardware stack levels used:    1
 Hardware stack levels required when called:    4
 This function calls:
		___aldiv
 This function is called by:
		_main
 This function uses a non-reentrant model


 *************** function ___aldiv *****************
 Defined at:
		line 6 in file "C:\Program Files (x86)\Microchip\xc8\v1.45\sources\common\aldiv.c"
 Parameters:    Size  Location     Type
  divisor         4    0[BANK0 ] long 
  dividend        4    4[BANK0 ] long 
 Auto vars:     Size  Location     Type
  quotient        4   11[BANK0 ] long 
  sign            1   10[BANK0 ] unsigned char 
  counter         1    9[BANK0 ] unsigned char 
 Return value:  Size  Location     Type
                  4    0[BANK0 ] long 
 Registers used:
		wreg, status,2, status,0
 Tracked objects:
		On entry : 
		On exit  : 
		Unchanged: 
 Data sizes:     COMMON   BANK0   BANK1   BANK3   BANK2
      Params:         0       8       0       0       0
      Locals:         0       6       0       0       0
      Temps:          0       1       0       0       0
      Totals:         0      15       0       0       0
Total ram usage:       15 bytes
 Hardware stack levels used:    1
 Hardware stack levels required when called:    3
 This function calls:
		Nothing
 This function is called by:
		_uart_init
 This function uses a non-reentrant model


 *************** function _pwm_set_duty_cycle *****************
 Defined at:
		line 64 in file "pwm.c"
 Parameters:    Size  Location     Type
  ui_duty_cycl    2    0[BANK0 ] unsigned int 
 Auto vars:     Size  Location     Type
		None
 Return value:  Size  Location     Type
                  1    wreg      void 
 Registers used:
		wreg, status,2, status,0
 Tracked objects:
		On entry : 
		On exit  : 
		Unchanged: 
 Data sizes:     COMMON   BANK0   BANK1   BANK3   BANK2
      Params:         0       2       0       0       0
      Locals:         0       0       0       0       0
      Temps:          0       2       0       0       0
      Totals:         0       4       0       0       0
Total ram usage:        4 bytes
 Hardware stack levels used:    1
 Hardware stack levels required when called:    3
 This function calls:
		Nothing
 This function is called by:
		_main
 This function uses a non-reentrant model


 *************** function _pwm_initialize *****************
 Defined at:
		line 29 in file "pwm.c"
 Parameters:    Size  Location     Type
		None
 Auto vars:     Size  Location     Type
		None
 Return value:  Size  Location     Type
                  1    wreg      void 
 Registers used:
		wreg, status,2
 Tracked objects:
		On entry : 
		On exit  : 
		Unchanged: 
 Data sizes:     COMMON   BANK0   BANK1   BANK3   BANK2
      Params:         0       0       0       0       0
      Locals:         0       0       0       0       0
      Temps:          0       0       0       0       0
      Totals:         0       0       0       0       0
Total ram usage:        0 bytes
 Hardware stack levels used:    1
 Hardware stack levels required when called:    3
 This function calls:
		Nothing
 This function is called by:
		_main
 This function uses a non-reentrant model


 *************** function _lcd_initialize *****************
 Defined at:
		line 100 in file "lcd.c"
 Parameters:    Size  Location     Type
		None
 Auto vars:     Size  Location     Type
		None
 Return value:  Size  Location     Type
                  1    wreg      void 
 Registers used:
		wreg, status,2, status,0, pclath, cstack
 Tracked objects:
		On entry : 
		On exit  : 
		Unchanged: 
 Data sizes:     COMMON   BANK0   BANK1   BANK3   BANK2
      Params:         0       0       0       0       0
      Locals:         0       0       0       0       0
      Temps:          0       2       0       0       0
      Totals:         0       2       0       0       0
Total ram usage:        2 bytes
 Hardware stack levels used:    1
 Hardware stack levels required when called:    6
 This function calls:
		_lcd_clear
		_send_lcd_data
		_set_lcd_e
 This function is called by:
		_main
 This function uses a non-reentrant model


 *************** function _lcd_clear *****************
 Defined at:
		line 136 in file "lcd.c"
 Parameters:    Size  Location     Type
		None
 Auto vars:     Size  Location     Type
		None
 Return value:  Size  Location     Type
                  1    wreg      void 
 Registers used:
		wreg, status,2, status,0, pclath, cstack
 Tracked objects:
		On entry : 
		On exit  : 
		Unchanged: 
 Data sizes:     COMMON   BANK0   BANK1   BANK3   BANK2
      Params:         0       0       0       0       0
      Locals:         0       0       0       0       0
      Temps:          0       0       0       0       0
      Totals:         0       0       0       0       0
Total ram usage:        0 bytes
 Hardware stack levels used:    1
 Hardware stack levels required when called:    5
 This function calls:
		_send_lcd_data
 This function is called by:
		_lcd_initialize
 This function uses a non-reentrant model


 *************** function _send_lcd_data *****************
 Defined at:
		line 308 in file "lcd.c"
 Parameters:    Size  Location     Type
  b_rs            1    wreg     unsigned char 
  uc_data         1    1[BANK0 ] unsigned char 
 Auto vars:     Size  Location     Type
  b_rs            1    4[BANK0 ] unsigned char 
 Return value:  Size  Location     Type
                  1    wreg      void 
 Registers used:
		wreg, status,2, status,0, pclath, cstack
 Tracked objects:
		On entry : 
		On exit  : 
		Unchanged: 
 Data sizes:     COMMON   BANK0   BANK1   BANK3   BANK2
      Params:         0       1       0       0       0
      Locals:         0       1       0       0       0
      Temps:          0       2       0       0       0
      Totals:         0       4       0       0       0
Total ram usage:        4 bytes
 Hardware stack levels used:    1
 Hardware stack levels required when called:    4
 This function calls:
		_set_lcd_data
		_set_lcd_e
		_set_lcd_rs
 This function is called by:
		_lcd_initialize
		_lcd_clear
		_lcd_home
		_lcd_2ndline
		_lcd_goto
		_lcd_putchar
 This function uses a non-reentrant model


 *************** function _set_lcd_rs *****************
 Defined at:
		line 360 in file "lcd.c"
 Parameters:    Size  Location     Type
  b_output        1    wreg     unsigned char 
 Auto vars:     Size  Location     Type
  b_output        1    0[BANK0 ] unsigned char 
 Return value:  Size  Location     Type
                  1    wreg      void 
 Registers used:
		wreg
 Tracked objects:
		On entry : 
		On exit  : 
		Unchanged: 
 Data sizes:     COMMON   BANK0   BANK1   BANK3   BANK2
      Params:         0       0       0       0       0
      Locals:         0       1       0       0       0
      Temps:          0       0       0       0       0
      Totals:         0       1       0       0       0
Total ram usage:        1 bytes
 Hardware stack levels used:    1
 Hardware stack levels required when called:    3
 This function calls:
		Nothing
 This function is called by:
		_send_lcd_data
 This function uses a non-reentrant model


 *************** function _set_lcd_e *****************
 Defined at:
		line 340 in file "lcd.c"
 Parameters:    Size  Location     Type
  b_output        1    wreg     unsigned char 
 Auto vars:     Size  Location     Type
  b_output        1    0[BANK0 ] unsigned char 
 Return value:  Size  Location     Type
                  1    wreg      void 
 Registers used:
		wreg
 Tracked objects:
		On entry : 
		On exit  : 
		Unchanged: 
 Data sizes:     COMMON   BANK0   BANK1   BANK3   BANK2
      Params:         0       0       0       0       0
      Locals:         0       1       0       0       0
      Temps:          0       0       0       0       0
      Totals:         0       1       0       0       0
Total ram usage:        1 bytes
 Hardware stack levels used:    1
 Hardware stack levels required when called:    3
 This function calls:
		Nothing
 This function is called by:
		_lcd_initialize
		_send_lcd_data
 This function uses a non-reentrant model


 *************** function _set_lcd_data *****************
 Defined at:
		line 380 in file "lcd.c"
 Parameters:    Size  Location     Type
  uc_data         1    wreg     unsigned char 
 Auto vars:     Size  Location     Type
  uc_data         1    0[BANK0 ] unsigned char 
 Return value:  Size  Location     Type
                  1    wreg      void 
 Registers used:
		wreg
 Tracked objects:
		On entry : 
		On exit  : 
		Unchanged: 
 Data sizes:     COMMON   BANK0   BANK1   BANK3   BANK2
      Params:         0       0       0       0       0
      Locals:         0       1       0       0       0
      Temps:          0       0       0       0       0
      Totals:         0       1       0       0       0
Total ram usage:        1 bytes
 Hardware stack levels used:    1
 Hardware stack levels required when called:    3
 This function calls:
		Nothing
 This function is called by:
		_send_lcd_data
 This function uses a non-reentrant model


 *************** function _adc_initialize *****************
 Defined at:
		line 28 in file "adc.c"
 Parameters:    Size  Location     Type
		None
 Auto vars:     Size  Location     Type
		None
 Return value:  Size  Location     Type
                  1    wreg      void 
 Registers used:
		None
 Tracked objects:
		On entry : 
		On exit  : 
		Unchanged: 
 Data sizes:     COMMON   BANK0   BANK1   BANK3   BANK2
      Params:         0       0       0       0       0
      Locals:         0       0       0       0       0
      Temps:          0       0       0       0       0
      Totals:         0       0       0       0       0
Total ram usage:        0 bytes
 Hardware stack levels used:    1
 Hardware stack levels required when called:    3
 This function calls:
		Nothing
 This function is called by:
		_main
 This function uses a non-reentrant model


 *************** function _InitApp *****************
 Defined at:
		line 22 in file "user.c"
 Parameters:    Size  Location     Type
		None
 Auto vars:     Size  Location     Type
		None
 Return value:  Size  Location     Type
                  1    wreg      void 
 Registers used:
		None
 Tracked objects:
		On entry : 
		On exit  : 
		Unchanged: 
 Data sizes:     COMMON   BANK0   BANK1   BANK3   BANK2
      Params:         0       0       0       0       0
      Locals:         0       0       0       0       0
      Temps:          0       0       0       0       0
      Totals:         0       0       0       0       0
Total ram usage:        0 bytes
 Hardware stack levels used:    1
 Hardware stack levels required when called:    3
 This function calls:
		Nothing
 This function is called by:
		_main
 This function uses a non-reentrant model


 *************** function _isr *****************
 Defined at:
		line 31 in file "interrupts.c"
 Parameters:    Size  Location     Type
		None
 Auto vars:     Size  Location     Type
		None
 Return value:  Size  Location     Type
                  1    wreg      void 
 Registers used:
		wreg, fsr0l, fsr0h, status,2, status,0, pclath, cstack
 Tracked objects:
		On entry : 
		On exit  : 
		Unchanged: 
 Data sizes:     COMMON   BANK0   BANK1   BANK3   BANK2
      Params:         0       0       0       0       0
      Locals:         0       0       0       0       0
      Temps:          4       0       0       0       0
      Totals:         4       0       0       0       0
Total ram usage:        4 bytes
 Hardware stack levels used:    1
 Hardware stack levels required when called:    2
 This function calls:
		_uart_read
		i1_uart_putstr
 This function is called by:
		Interrupt level 1
 This function uses a non-reentrant model


 *************** function i1_uart_putstr *****************
 Defined at:
		line 127 in file "uart.c"
 Parameters:    Size  Location     Type
  st_pt           1    wreg     PTR unsigned char 
		 -> STR_2(11), STR_1(7), 
 Auto vars:     Size  Location     Type
  st_pt           1    2[COMMON] PTR unsigned char 
		 -> STR_2(11), STR_1(7), 
 Return value:  Size  Location     Type
                  1    wreg      void 
 Registers used:
		wreg, fsr0l, fsr0h, status,2, status,0, pclath, cstack
 Tracked objects:
		On entry : 
		On exit  : 
		Unchanged: 
 Data sizes:     COMMON   BANK0   BANK1   BANK3   BANK2
      Params:         0       0       0       0       0
      Locals:         1       0       0       0       0
      Temps:          1       0       0       0       0
      Totals:         2       0       0       0       0
Total ram usage:        2 bytes
 Hardware stack levels used:    1
 Hardware stack levels required when called:    1
 This function calls:
		i1_uart_send
 This function is called by:
		_isr
 This function uses a non-reentrant model


 *************** function i1_uart_send *****************
 Defined at:
		line 69 in file "uart.c"
 Parameters:    Size  Location     Type
  uc_data         1    wreg     unsigned char 
 Auto vars:     Size  Location     Type
  uc_data         1    0[COMMON] unsigned char 
 Return value:  Size  Location     Type
                  1    wreg      void 
 Registers used:
		wreg
 Tracked objects:
		On entry : 
		On exit  : 
		Unchanged: 
 Data sizes:     COMMON   BANK0   BANK1   BANK3   BANK2
      Params:         0       0       0       0       0
      Locals:         1       0       0       0       0
      Temps:          0       0       0       0       0
      Totals:         1       0       0       0       0
Total ram usage:        1 bytes
 Hardware stack levels used:    1
 This function calls:
		Nothing
 This function is called by:
		i1_uart_putstr
 This function uses a non-reentrant model


 *************** function _uart_read *****************
 Defined at:
		line 95 in file "uart.c"
 Parameters:    Size  Location     Type
		None
 Auto vars:     Size  Location     Type
		None
 Return value:  Size  Location     Type
                  1    wreg      unsigned char 
 Registers used:
		wreg
 Tracked objects:
		On entry : 
		On exit  : 
		Unchanged: 
 Data sizes:     COMMON   BANK0   BANK1   BANK3   BANK2
      Params:         0       0       0       0       0
      Locals:         0       0       0       0       0
      Temps:          0       0       0       0       0
      Totals:         0       0       0       0       0
Total ram usage:        0 bytes
 Hardware stack levels used:    1
 This function calls:
		Nothing
 This function is called by:
		_isr
 This function uses a non-reentrant model



MODULE INFORMATION

Module		Function		Class		Link	Load	Size
uart.c
		_uart_read     		CODE           	0372	0000	11
		_uart_init     		CODE           	0027	0000	241
		_uart_send     		CODE           	038D	0000	9
		_uart_putstr   		CODE           	02C7	0000	33

uart.c estimated size: 294

interrupts.c
		_isr           		CODE           	01A6	0000	95

interrupts.c estimated size: 95

pwm.c
		_pwm_initialize		CODE           	0339	0000	17
		_pwm_set_duty_cycle		CODE           	02E7	0000	31

pwm.c estimated size: 48

adc.c
		_adc_initialize		CODE           	0349	0000	16

adc.c estimated size: 16

shared
		i1_uart_putstr 		CODE           	0305	0000	29
		__stringtab    		STRING         	0321	0000	7
		__initialization		CODE           	0015	0000	15
		i1_uart_send   		CODE           	0395	0000	9

shared estimated size: 60

lcd.c
		_set_lcd_e     		CODE           	0365	0000	14
		_set_lcd_rs    		CODE           	0358	0000	14
		_set_lcd_data  		CODE           	039D	0000	7
		_lcd_initialize		CODE           	028F	0000	57
		_lcd_clear     		CODE           	037C	0000	10
		_send_lcd_data 		CODE           	0252	0000	62

lcd.c estimated size: 164

user.c
		_InitApp       		CODE           	03A3	0000	2

user.c estimated size: 2

C:\Program Files (x86)\Microchip\xc8\v1.45\sources\common\aldiv.c
		___aldiv       		CODE           	0117	0000	144

C:\Program Files (x86)\Microchip\xc8\v1.45\sources\common\aldiv.c estimated size: 144

main.c
		_main          		CODE           	0204	0000	79

main.c estimated size: 79

